
SBIO3.elf:     file format elf32-avr

Sections:
Idx Name          Size      VMA       LMA       File off  Algn
  0 .data         000001b0  00800100  00002598  0000262c  2**0
                  CONTENTS, ALLOC, LOAD, DATA
  1 .text         00002598  00000000  00000000  00000094  2**1
                  CONTENTS, ALLOC, LOAD, READONLY, CODE
  2 .bss          00000146  008002b0  008002b0  000027dc  2**0
                  ALLOC
  3 .comment      0000005c  00000000  00000000  000027dc  2**0
                  CONTENTS, READONLY
  4 .note.gnu.avr.deviceinfo 0000003c  00000000  00000000  00002838  2**2
                  CONTENTS, READONLY
  5 .debug_aranges 000001c8  00000000  00000000  00002874  2**0
                  CONTENTS, READONLY, DEBUGGING
  6 .debug_info   0000311d  00000000  00000000  00002a3c  2**0
                  CONTENTS, READONLY, DEBUGGING
  7 .debug_abbrev 000015c5  00000000  00000000  00005b59  2**0
                  CONTENTS, READONLY, DEBUGGING
  8 .debug_line   000016c6  00000000  00000000  0000711e  2**0
                  CONTENTS, READONLY, DEBUGGING
  9 .debug_frame  000004a8  00000000  00000000  000087e4  2**2
                  CONTENTS, READONLY, DEBUGGING
 10 .debug_str    00000845  00000000  00000000  00008c8c  2**0
                  CONTENTS, READONLY, DEBUGGING
 11 .debug_loc    00001241  00000000  00000000  000094d1  2**0
                  CONTENTS, READONLY, DEBUGGING
 12 .debug_ranges 00000190  00000000  00000000  0000a712  2**0
                  CONTENTS, READONLY, DEBUGGING

Disassembly of section .text:

00000000 <__vectors>:
       0:	0c 94 c7 00 	jmp	0x18e	; 0x18e <__ctors_end>
       4:	0c 94 e4 00 	jmp	0x1c8	; 0x1c8 <__bad_interrupt>
       8:	0c 94 e4 00 	jmp	0x1c8	; 0x1c8 <__bad_interrupt>
       c:	0c 94 e4 00 	jmp	0x1c8	; 0x1c8 <__bad_interrupt>
      10:	0c 94 e4 00 	jmp	0x1c8	; 0x1c8 <__bad_interrupt>
      14:	0c 94 e4 00 	jmp	0x1c8	; 0x1c8 <__bad_interrupt>
      18:	0c 94 e4 00 	jmp	0x1c8	; 0x1c8 <__bad_interrupt>
      1c:	0c 94 e4 00 	jmp	0x1c8	; 0x1c8 <__bad_interrupt>
      20:	0c 94 e4 00 	jmp	0x1c8	; 0x1c8 <__bad_interrupt>
      24:	0c 94 e4 00 	jmp	0x1c8	; 0x1c8 <__bad_interrupt>
      28:	0c 94 e4 00 	jmp	0x1c8	; 0x1c8 <__bad_interrupt>
      2c:	0c 94 e4 00 	jmp	0x1c8	; 0x1c8 <__bad_interrupt>
      30:	0c 94 e4 00 	jmp	0x1c8	; 0x1c8 <__bad_interrupt>
      34:	0c 94 e4 00 	jmp	0x1c8	; 0x1c8 <__bad_interrupt>
      38:	0c 94 e4 00 	jmp	0x1c8	; 0x1c8 <__bad_interrupt>
      3c:	0c 94 e4 00 	jmp	0x1c8	; 0x1c8 <__bad_interrupt>
      40:	0c 94 e4 00 	jmp	0x1c8	; 0x1c8 <__bad_interrupt>
      44:	0c 94 e4 00 	jmp	0x1c8	; 0x1c8 <__bad_interrupt>
      48:	0c 94 1d 07 	jmp	0xe3a	; 0xe3a <__vector_18>
      4c:	0c 94 e4 00 	jmp	0x1c8	; 0x1c8 <__bad_interrupt>
      50:	0c 94 e4 00 	jmp	0x1c8	; 0x1c8 <__bad_interrupt>
      54:	0c 94 e4 00 	jmp	0x1c8	; 0x1c8 <__bad_interrupt>
      58:	0c 94 e4 00 	jmp	0x1c8	; 0x1c8 <__bad_interrupt>
      5c:	0c 94 e4 00 	jmp	0x1c8	; 0x1c8 <__bad_interrupt>
      60:	0c 94 e4 00 	jmp	0x1c8	; 0x1c8 <__bad_interrupt>
      64:	0c 94 e4 00 	jmp	0x1c8	; 0x1c8 <__bad_interrupt>
      68:	0c 94 e4 00 	jmp	0x1c8	; 0x1c8 <__bad_interrupt>
      6c:	0c 94 e4 00 	jmp	0x1c8	; 0x1c8 <__bad_interrupt>
      70:	0c 94 e4 00 	jmp	0x1c8	; 0x1c8 <__bad_interrupt>
      74:	0c 94 e4 00 	jmp	0x1c8	; 0x1c8 <__bad_interrupt>
      78:	0c 94 e4 00 	jmp	0x1c8	; 0x1c8 <__bad_interrupt>
      7c:	0c 94 e4 00 	jmp	0x1c8	; 0x1c8 <__bad_interrupt>
      80:	0c 94 e4 00 	jmp	0x1c8	; 0x1c8 <__bad_interrupt>
      84:	0c 94 e4 00 	jmp	0x1c8	; 0x1c8 <__bad_interrupt>
      88:	0c 94 e4 00 	jmp	0x1c8	; 0x1c8 <__bad_interrupt>

0000008c <__trampolines_end>:
      8c:	6e 61       	ori	r22, 0x1E	; 30
      8e:	6e 00       	.word	0x006e	; ????

00000090 <__c.2332>:
      90:	69 6e 66 00 00 40 7a 10 f3 5a 00 a0 72 4e 18 09     inf..@z..Z..rN..
      a0:	00 10 a5 d4 e8 00 00 e8 76 48 17 00 00 e4 0b 54     ........vH.....T
      b0:	02 00 00 ca 9a 3b 00 00 00 e1 f5 05 00 00 80 96     .....;..........
      c0:	98 00 00 00 40 42 0f 00 00 00 a0 86 01 00 00 00     ....@B..........
      d0:	10 27 00 00 00 00 e8 03 00 00 00 00 64 00 00 00     .'..........d...
      e0:	00 00 0a 00 00 00 00 00 01 00 00 00 00 00 2c 76     ..............,v
      f0:	d8 88 dc 67 4f 08 23 df c1 df ae 59 e1 b1 b7 96     ...gO.#....Y....
     100:	e5 e3 e4 53 c6 3a e6 51 99 76 96 e8 e6 c2 84 26     ...S.:.Q.v.....&
     110:	eb 89 8c 9b 62 ed 40 7c 6f fc ef bc 9c 9f 40 f2     ....b.@|o.....@.
     120:	ba a5 6f a5 f4 90 05 5a 2a f7 5c 93 6b 6c f9 67     ..o....Z*.\.kl.g
     130:	6d c1 1b fc e0 e4 0d 47 fe f5 20 e6 b5 00 d0 ed     m......G.. .....
     140:	90 2e 03 00 94 35 77 05 00 80 84 1e 08 00 00 20     .....5w........ 
     150:	4e 0a 00 00 00 c8 0c 33 33 33 33 0f 98 6e 12 83     N......3333..n..
     160:	11 41 ef 8d 21 14 89 3b e6 55 16 cf fe e6 db 18     .A..!..;.U......
     170:	d1 84 4b 38 1b f7 7c 1d 90 1d a4 bb e4 24 20 32     ..K8..|......$ 2
     180:	84 72 5e 22 81 00 c9 f1 24 ec a1 e5 3d 27           .r^"....$...='

0000018e <__ctors_end>:
     18e:	11 24       	eor	r1, r1
     190:	1f be       	out	0x3f, r1	; 63
     192:	cf ef       	ldi	r28, 0xFF	; 255
     194:	d0 e1       	ldi	r29, 0x10	; 16
     196:	de bf       	out	0x3e, r29	; 62
     198:	cd bf       	out	0x3d, r28	; 61

0000019a <__do_copy_data>:
     19a:	12 e0       	ldi	r17, 0x02	; 2
     19c:	a0 e0       	ldi	r26, 0x00	; 0
     19e:	b1 e0       	ldi	r27, 0x01	; 1
     1a0:	e8 e9       	ldi	r30, 0x98	; 152
     1a2:	f5 e2       	ldi	r31, 0x25	; 37
     1a4:	02 c0       	rjmp	.+4      	; 0x1aa <__do_copy_data+0x10>
     1a6:	05 90       	lpm	r0, Z+
     1a8:	0d 92       	st	X+, r0
     1aa:	a0 3b       	cpi	r26, 0xB0	; 176
     1ac:	b1 07       	cpc	r27, r17
     1ae:	d9 f7       	brne	.-10     	; 0x1a6 <__do_copy_data+0xc>

000001b0 <__do_clear_bss>:
     1b0:	23 e0       	ldi	r18, 0x03	; 3
     1b2:	a0 eb       	ldi	r26, 0xB0	; 176
     1b4:	b2 e0       	ldi	r27, 0x02	; 2
     1b6:	01 c0       	rjmp	.+2      	; 0x1ba <.do_clear_bss_start>

000001b8 <.do_clear_bss_loop>:
     1b8:	1d 92       	st	X+, r1

000001ba <.do_clear_bss_start>:
     1ba:	a6 3f       	cpi	r26, 0xF6	; 246
     1bc:	b2 07       	cpc	r27, r18
     1be:	e1 f7       	brne	.-8      	; 0x1b8 <.do_clear_bss_loop>
     1c0:	0e 94 0c 04 	call	0x818	; 0x818 <main>
     1c4:	0c 94 ca 12 	jmp	0x2594	; 0x2594 <_exit>

000001c8 <__bad_interrupt>:
     1c8:	0c 94 00 00 	jmp	0	; 0x0 <__vectors>

000001cc <Init_ADC>:

#include "ADC_Routine.h"
#include "UART_Routine.h"

void Init_ADC (ADW *ADW0)
{
     1cc:	cf 92       	push	r12
     1ce:	df 92       	push	r13
     1d0:	ef 92       	push	r14
     1d2:	ff 92       	push	r15
     1d4:	0f 93       	push	r16
     1d6:	1f 93       	push	r17
     1d8:	cf 93       	push	r28
     1da:	8c 01       	movw	r16, r24
	ADW0->ADC_Channellist[0] = ON;
     1dc:	81 e0       	ldi	r24, 0x01	; 1
     1de:	f8 01       	movw	r30, r16
     1e0:	80 83       	st	Z, r24
	ADW0->ADC_Channellist[1] = ON;
     1e2:	81 83       	std	Z+1, r24	; 0x01
	ADW0->ADC_Channellist[2] = ON;
     1e4:	82 83       	std	Z+2, r24	; 0x02
	ADW0->ADC_Channellist[3] = ON;
     1e6:	83 83       	std	Z+3, r24	; 0x03
	ADW0->ADC_Channellist[4] = OFF;
     1e8:	14 82       	std	Z+4, r1	; 0x04
	ADW0->ADC_Channellist[5] = OFF;
     1ea:	15 82       	std	Z+5, r1	; 0x05
	ADW0->ADC_Channellist[6] = OFF;
     1ec:	16 82       	std	Z+6, r1	; 0x06
	ADW0->ADC_Channellist[7] = OFF;
     1ee:	17 82       	std	Z+7, r1	; 0x07
	
	//Speicherplatz reservieren
	ADW0->ADC_Val = malloc(8 * sizeof(uint16_t *));
     1f0:	80 e1       	ldi	r24, 0x10	; 16
     1f2:	90 e0       	ldi	r25, 0x00	; 0
     1f4:	0e 94 85 0f 	call	0x1f0a	; 0x1f0a <malloc>
     1f8:	f8 01       	movw	r30, r16
     1fa:	91 87       	std	Z+9, r25	; 0x09
     1fc:	80 87       	std	Z+8, r24	; 0x08
	if (ADW0->ADC_Val == NULL) printf("ADC Zeile NULL \n");
     1fe:	89 2b       	or	r24, r25
     200:	21 f4       	brne	.+8      	; 0x20a <Init_ADC+0x3e>
     202:	84 e1       	ldi	r24, 0x14	; 20
     204:	91 e0       	ldi	r25, 0x01	; 1
     206:	0e 94 1a 12 	call	0x2434	; 0x2434 <puts>

#include "ADC_Routine.h"
#include "UART_Routine.h"

void Init_ADC (ADW *ADW0)
{
     20a:	c0 e0       	ldi	r28, 0x00	; 0
     20c:	31 c0       	rjmp	.+98     	; 0x270 <Init_ADC+0xa4>
	ADW0->ADC_Val = malloc(8 * sizeof(uint16_t *));
	if (ADW0->ADC_Val == NULL) printf("ADC Zeile NULL \n");
	
	for (uint8_t i = 0; i <= (ADC_square - 1); i++)
	{
		 if (ADW0->ADC_Channellist[i]) ADW0->ADC_Val[i] = malloc(ADC_square * sizeof(uint16_t));
     20e:	ec 2e       	mov	r14, r28
     210:	f1 2c       	mov	r15, r1
     212:	f8 01       	movw	r30, r16
     214:	ee 0d       	add	r30, r14
     216:	ff 1d       	adc	r31, r15
     218:	80 81       	ld	r24, Z
     21a:	88 23       	and	r24, r24
     21c:	79 f0       	breq	.+30     	; 0x23c <Init_ADC+0x70>
     21e:	f8 01       	movw	r30, r16
     220:	80 85       	ldd	r24, Z+8	; 0x08
     222:	91 85       	ldd	r25, Z+9	; 0x09
     224:	67 01       	movw	r12, r14
     226:	cc 0c       	add	r12, r12
     228:	dd 1c       	adc	r13, r13
     22a:	c8 0e       	add	r12, r24
     22c:	d9 1e       	adc	r13, r25
     22e:	84 e1       	ldi	r24, 0x14	; 20
     230:	90 e0       	ldi	r25, 0x00	; 0
     232:	0e 94 85 0f 	call	0x1f0a	; 0x1f0a <malloc>
     236:	f6 01       	movw	r30, r12
     238:	91 83       	std	Z+1, r25	; 0x01
     23a:	80 83       	st	Z, r24
		 if (ADW0->ADC_Val[i] == NULL) printf("ADC Spalte: %d NULL \n", i);
     23c:	f8 01       	movw	r30, r16
     23e:	80 85       	ldd	r24, Z+8	; 0x08
     240:	91 85       	ldd	r25, Z+9	; 0x09
     242:	ec 2f       	mov	r30, r28
     244:	f0 e0       	ldi	r31, 0x00	; 0
     246:	ee 0f       	add	r30, r30
     248:	ff 1f       	adc	r31, r31
     24a:	e8 0f       	add	r30, r24
     24c:	f9 1f       	adc	r31, r25
     24e:	80 81       	ld	r24, Z
     250:	91 81       	ldd	r25, Z+1	; 0x01
     252:	89 2b       	or	r24, r25
     254:	61 f4       	brne	.+24     	; 0x26e <Init_ADC+0xa2>
     256:	ff 92       	push	r15
     258:	ef 92       	push	r14
     25a:	84 e2       	ldi	r24, 0x24	; 36
     25c:	91 e0       	ldi	r25, 0x01	; 1
     25e:	9f 93       	push	r25
     260:	8f 93       	push	r24
     262:	0e 94 04 12 	call	0x2408	; 0x2408 <printf>
     266:	0f 90       	pop	r0
     268:	0f 90       	pop	r0
     26a:	0f 90       	pop	r0
     26c:	0f 90       	pop	r0
	
	//Speicherplatz reservieren
	ADW0->ADC_Val = malloc(8 * sizeof(uint16_t *));
	if (ADW0->ADC_Val == NULL) printf("ADC Zeile NULL \n");
	
	for (uint8_t i = 0; i <= (ADC_square - 1); i++)
     26e:	cf 5f       	subi	r28, 0xFF	; 255
     270:	ca 30       	cpi	r28, 0x0A	; 10
     272:	68 f2       	brcs	.-102    	; 0x20e <Init_ADC+0x42>
	{
		 if (ADW0->ADC_Channellist[i]) ADW0->ADC_Val[i] = malloc(ADC_square * sizeof(uint16_t));
		 if (ADW0->ADC_Val[i] == NULL) printf("ADC Spalte: %d NULL \n", i);
	}
	
	ADMUX = (1<<REFS0);
     274:	80 e4       	ldi	r24, 0x40	; 64
     276:	87 b9       	out	0x07, r24	; 7
	ADCSRA = (1<<ADEN) | (1<<ADSC) | (1<<ADPS2);
     278:	84 ec       	ldi	r24, 0xC4	; 196
     27a:	86 b9       	out	0x06, r24	; 6
}
     27c:	cf 91       	pop	r28
     27e:	1f 91       	pop	r17
     280:	0f 91       	pop	r16
     282:	ff 90       	pop	r15
     284:	ef 90       	pop	r14
     286:	df 90       	pop	r13
     288:	cf 90       	pop	r12
     28a:	08 95       	ret

0000028c <Start_ADC>:

void Start_ADC (ADW *ADW0)
{
     28c:	dc 01       	movw	r26, r24
	static uint8_t counter = 0;
	
	for (uint8_t i = 0; i <= 7; i++)
     28e:	90 e0       	ldi	r25, 0x00	; 0
     290:	2d c0       	rjmp	.+90     	; 0x2ec <Start_ADC+0x60>
	{
		if (ADW0->ADC_Channellist[i])
     292:	fd 01       	movw	r30, r26
     294:	e9 0f       	add	r30, r25
     296:	f1 1d       	adc	r31, r1
     298:	80 81       	ld	r24, Z
     29a:	88 23       	and	r24, r24
     29c:	31 f1       	breq	.+76     	; 0x2ea <Start_ADC+0x5e>
		{
			ADMUX = (ADMUX & ~(0x0F) | (i & 0x0F));
     29e:	87 b1       	in	r24, 0x07	; 7
     2a0:	80 7f       	andi	r24, 0xF0	; 240
     2a2:	29 2f       	mov	r18, r25
     2a4:	2f 70       	andi	r18, 0x0F	; 15
     2a6:	82 2b       	or	r24, r18
     2a8:	87 b9       	out	0x07, r24	; 7
			ADCSRA |= (1<<ADSC);
     2aa:	26 b1       	in	r18, 0x06	; 6
     2ac:	20 64       	ori	r18, 0x40	; 64
     2ae:	26 b9       	out	0x06, r18	; 6
			while (ADCSRA & (1<<ADSC));
     2b0:	36 99       	sbic	0x06, 6	; 6
     2b2:	fe cf       	rjmp	.-4      	; 0x2b0 <Start_ADC+0x24>
			ADW0->ADC_Val[i][counter] = ADCW;
     2b4:	18 96       	adiw	r26, 0x08	; 8
     2b6:	2d 91       	ld	r18, X+
     2b8:	3c 91       	ld	r19, X
     2ba:	19 97       	sbiw	r26, 0x09	; 9
     2bc:	e9 2f       	mov	r30, r25
     2be:	f0 e0       	ldi	r31, 0x00	; 0
     2c0:	ee 0f       	add	r30, r30
     2c2:	ff 1f       	adc	r31, r31
     2c4:	e2 0f       	add	r30, r18
     2c6:	f3 1f       	adc	r31, r19
     2c8:	40 81       	ld	r20, Z
     2ca:	51 81       	ldd	r21, Z+1	; 0x01
     2cc:	20 91 b0 02 	lds	r18, 0x02B0	; 0x8002b0 <__data_end>
     2d0:	e2 2f       	mov	r30, r18
     2d2:	f0 e0       	ldi	r31, 0x00	; 0
     2d4:	ee 0f       	add	r30, r30
     2d6:	ff 1f       	adc	r31, r31
     2d8:	e4 0f       	add	r30, r20
     2da:	f5 1f       	adc	r31, r21
     2dc:	24 b1       	in	r18, 0x04	; 4
     2de:	35 b1       	in	r19, 0x05	; 5
     2e0:	31 83       	std	Z+1, r19	; 0x01
     2e2:	20 83       	st	Z, r18
			ADMUX &= ~(0x0F);
     2e4:	27 b1       	in	r18, 0x07	; 7
     2e6:	20 7f       	andi	r18, 0xF0	; 240
     2e8:	27 b9       	out	0x07, r18	; 7

void Start_ADC (ADW *ADW0)
{
	static uint8_t counter = 0;
	
	for (uint8_t i = 0; i <= 7; i++)
     2ea:	9f 5f       	subi	r25, 0xFF	; 255
     2ec:	98 30       	cpi	r25, 0x08	; 8
     2ee:	88 f2       	brcs	.-94     	; 0x292 <Start_ADC+0x6>
			ADW0->ADC_Val[i][counter] = ADCW;
			ADMUX &= ~(0x0F);
		}
	}
	
	if (counter < ADC_square) counter++;
     2f0:	80 91 b0 02 	lds	r24, 0x02B0	; 0x8002b0 <__data_end>
     2f4:	8a 30       	cpi	r24, 0x0A	; 10
     2f6:	18 f4       	brcc	.+6      	; 0x2fe <Start_ADC+0x72>
     2f8:	8f 5f       	subi	r24, 0xFF	; 255
     2fa:	80 93 b0 02 	sts	0x02B0, r24	; 0x8002b0 <__data_end>
	if (counter == ADC_square) counter = 0;
     2fe:	80 91 b0 02 	lds	r24, 0x02B0	; 0x8002b0 <__data_end>
     302:	8a 30       	cpi	r24, 0x0A	; 10
     304:	11 f4       	brne	.+4      	; 0x30a <Start_ADC+0x7e>
     306:	10 92 b0 02 	sts	0x02B0, r1	; 0x8002b0 <__data_end>
     30a:	08 95       	ret

0000030c <Calculate_ADC>:
}

void Calculate_ADC(ADW *ADW0)
{
     30c:	2f 92       	push	r2
     30e:	3f 92       	push	r3
     310:	4f 92       	push	r4
     312:	5f 92       	push	r5
     314:	6f 92       	push	r6
     316:	7f 92       	push	r7
     318:	8f 92       	push	r8
     31a:	9f 92       	push	r9
     31c:	af 92       	push	r10
     31e:	bf 92       	push	r11
     320:	cf 92       	push	r12
     322:	df 92       	push	r13
     324:	ef 92       	push	r14
     326:	ff 92       	push	r15
     328:	0f 93       	push	r16
     32a:	1f 93       	push	r17
     32c:	cf 93       	push	r28
     32e:	df 93       	push	r29
     330:	00 d0       	rcall	.+0      	; 0x332 <Calculate_ADC+0x26>
     332:	00 d0       	rcall	.+0      	; 0x334 <Calculate_ADC+0x28>
     334:	00 d0       	rcall	.+0      	; 0x336 <Calculate_ADC+0x2a>
     336:	cd b7       	in	r28, 0x3d	; 61
     338:	de b7       	in	r29, 0x3e	; 62
     33a:	9c 83       	std	Y+4, r25	; 0x04
     33c:	8b 83       	std	Y+3, r24	; 0x03
	uint64_t ADC_Sum = 0;
	
	for (uint8_t i = 0; i <= 7; i++)
     33e:	61 2c       	mov	r6, r1
     340:	7b c0       	rjmp	.+246    	; 0x438 <__LOCK_REGION_LENGTH__+0x38>
	{
		if (ADW0->ADC_Channellist[i]) for (uint8_t k = 0; k <= (ADC_square-1); k++) ADC_Sum += ADW0->ADC_Val[i][k];
     342:	86 2d       	mov	r24, r6
     344:	90 e0       	ldi	r25, 0x00	; 0
     346:	9a 83       	std	Y+2, r25	; 0x02
     348:	89 83       	std	Y+1, r24	; 0x01
     34a:	fc 01       	movw	r30, r24
     34c:	8b 81       	ldd	r24, Y+3	; 0x03
     34e:	9c 81       	ldd	r25, Y+4	; 0x04
     350:	e8 0f       	add	r30, r24
     352:	f9 1f       	adc	r31, r25
     354:	80 81       	ld	r24, Z
     356:	81 11       	cpse	r24, r1
     358:	3c c0       	rjmp	.+120    	; 0x3d2 <Calculate_ADC+0xc6>
     35a:	51 2c       	mov	r5, r1
     35c:	71 2c       	mov	r7, r1
     35e:	b0 e0       	ldi	r27, 0x00	; 0
     360:	a0 e0       	ldi	r26, 0x00	; 0
     362:	1d 82       	std	Y+5, r1	; 0x05
     364:	1e 82       	std	Y+6, r1	; 0x06
     366:	21 2c       	mov	r2, r1
     368:	31 2c       	mov	r3, r1
     36a:	3f c0       	rjmp	.+126    	; 0x3ea <Calculate_ADC+0xde>
     36c:	eb 81       	ldd	r30, Y+3	; 0x03
     36e:	fc 81       	ldd	r31, Y+4	; 0x04
     370:	20 85       	ldd	r18, Z+8	; 0x08
     372:	31 85       	ldd	r19, Z+9	; 0x09
     374:	86 2d       	mov	r24, r6
     376:	90 e0       	ldi	r25, 0x00	; 0
     378:	88 0f       	add	r24, r24
     37a:	99 1f       	adc	r25, r25
     37c:	82 0f       	add	r24, r18
     37e:	93 1f       	adc	r25, r19
     380:	fc 01       	movw	r30, r24
     382:	20 81       	ld	r18, Z
     384:	31 81       	ldd	r19, Z+1	; 0x01
     386:	84 2d       	mov	r24, r4
     388:	90 e0       	ldi	r25, 0x00	; 0
     38a:	88 0f       	add	r24, r24
     38c:	99 1f       	adc	r25, r25
     38e:	82 0f       	add	r24, r18
     390:	93 1f       	adc	r25, r19
     392:	fc 01       	movw	r30, r24
     394:	a0 80       	ld	r10, Z
     396:	b1 80       	ldd	r11, Z+1	; 0x01
     398:	45 01       	movw	r8, r10
     39a:	28 2d       	mov	r18, r8
     39c:	39 2d       	mov	r19, r9
     39e:	40 e0       	ldi	r20, 0x00	; 0
     3a0:	50 e0       	ldi	r21, 0x00	; 0
     3a2:	60 e0       	ldi	r22, 0x00	; 0
     3a4:	70 e0       	ldi	r23, 0x00	; 0
     3a6:	80 e0       	ldi	r24, 0x00	; 0
     3a8:	90 e0       	ldi	r25, 0x00	; 0
     3aa:	a5 2c       	mov	r10, r5
     3ac:	b7 2c       	mov	r11, r7
     3ae:	cb 2e       	mov	r12, r27
     3b0:	da 2e       	mov	r13, r26
     3b2:	ed 80       	ldd	r14, Y+5	; 0x05
     3b4:	fe 80       	ldd	r15, Y+6	; 0x06
     3b6:	02 2d       	mov	r16, r2
     3b8:	13 2d       	mov	r17, r3
     3ba:	0e 94 7c 0f 	call	0x1ef8	; 0x1ef8 <__adddi3>
     3be:	52 2e       	mov	r5, r18
     3c0:	73 2e       	mov	r7, r19
     3c2:	b4 2f       	mov	r27, r20
     3c4:	a5 2f       	mov	r26, r21
     3c6:	6d 83       	std	Y+5, r22	; 0x05
     3c8:	7e 83       	std	Y+6, r23	; 0x06
     3ca:	28 2e       	mov	r2, r24
     3cc:	39 2e       	mov	r3, r25
     3ce:	43 94       	inc	r4
     3d0:	09 c0       	rjmp	.+18     	; 0x3e4 <Calculate_ADC+0xd8>
     3d2:	41 2c       	mov	r4, r1
     3d4:	51 2c       	mov	r5, r1
     3d6:	71 2c       	mov	r7, r1
     3d8:	b0 e0       	ldi	r27, 0x00	; 0
     3da:	a0 e0       	ldi	r26, 0x00	; 0
     3dc:	1d 82       	std	Y+5, r1	; 0x05
     3de:	1e 82       	std	Y+6, r1	; 0x06
     3e0:	21 2c       	mov	r2, r1
     3e2:	31 2c       	mov	r3, r1
     3e4:	f9 e0       	ldi	r31, 0x09	; 9
     3e6:	f4 15       	cp	r31, r4
     3e8:	08 f6       	brcc	.-126    	; 0x36c <Calculate_ADC+0x60>
		ADW0->ADC_Average[i] = ADC_Sum / ADC_square;
     3ea:	0f 2e       	mov	r0, r31
     3ec:	fa e0       	ldi	r31, 0x0A	; 10
     3ee:	af 2e       	mov	r10, r31
     3f0:	f0 2d       	mov	r31, r0
     3f2:	b1 2c       	mov	r11, r1
     3f4:	c1 2c       	mov	r12, r1
     3f6:	d1 2c       	mov	r13, r1
     3f8:	e1 2c       	mov	r14, r1
     3fa:	f1 2c       	mov	r15, r1
     3fc:	00 e0       	ldi	r16, 0x00	; 0
     3fe:	10 e0       	ldi	r17, 0x00	; 0
     400:	25 2d       	mov	r18, r5
     402:	37 2d       	mov	r19, r7
     404:	4b 2f       	mov	r20, r27
     406:	5a 2f       	mov	r21, r26
     408:	6d 81       	ldd	r22, Y+5	; 0x05
     40a:	7e 81       	ldd	r23, Y+6	; 0x06
     40c:	82 2d       	mov	r24, r2
     40e:	93 2d       	mov	r25, r3
     410:	0e 94 e8 0e 	call	0x1dd0	; 0x1dd0 <__udivdi3>
     414:	89 80       	ldd	r8, Y+1	; 0x01
     416:	9a 80       	ldd	r9, Y+2	; 0x02
     418:	88 0c       	add	r8, r8
     41a:	99 1c       	adc	r9, r9
     41c:	88 0c       	add	r8, r8
     41e:	99 1c       	adc	r9, r9
     420:	eb 81       	ldd	r30, Y+3	; 0x03
     422:	fc 81       	ldd	r31, Y+4	; 0x04
     424:	8e 0e       	add	r8, r30
     426:	9f 1e       	adc	r9, r31
     428:	0e 94 6d 0a 	call	0x14da	; 0x14da <__floatundisf>
     42c:	f4 01       	movw	r30, r8
     42e:	63 87       	std	Z+11, r22	; 0x0b
     430:	74 87       	std	Z+12, r23	; 0x0c
     432:	85 87       	std	Z+13, r24	; 0x0d
     434:	96 87       	std	Z+14, r25	; 0x0e

void Calculate_ADC(ADW *ADW0)
{
	uint64_t ADC_Sum = 0;
	
	for (uint8_t i = 0; i <= 7; i++)
     436:	63 94       	inc	r6
     438:	f7 e0       	ldi	r31, 0x07	; 7
     43a:	f6 15       	cp	r31, r6
     43c:	08 f0       	brcs	.+2      	; 0x440 <__LOCK_REGION_LENGTH__+0x40>
     43e:	81 cf       	rjmp	.-254    	; 0x342 <Calculate_ADC+0x36>
	{
		if (ADW0->ADC_Channellist[i]) for (uint8_t k = 0; k <= (ADC_square-1); k++) ADC_Sum += ADW0->ADC_Val[i][k];
		ADW0->ADC_Average[i] = ADC_Sum / ADC_square;
		ADC_Sum = 0;			
	}
}
     440:	26 96       	adiw	r28, 0x06	; 6
     442:	0f b6       	in	r0, 0x3f	; 63
     444:	f8 94       	cli
     446:	de bf       	out	0x3e, r29	; 62
     448:	0f be       	out	0x3f, r0	; 63
     44a:	cd bf       	out	0x3d, r28	; 61
     44c:	df 91       	pop	r29
     44e:	cf 91       	pop	r28
     450:	1f 91       	pop	r17
     452:	0f 91       	pop	r16
     454:	ff 90       	pop	r15
     456:	ef 90       	pop	r14
     458:	df 90       	pop	r13
     45a:	cf 90       	pop	r12
     45c:	bf 90       	pop	r11
     45e:	af 90       	pop	r10
     460:	9f 90       	pop	r9
     462:	8f 90       	pop	r8
     464:	7f 90       	pop	r7
     466:	6f 90       	pop	r6
     468:	5f 90       	pop	r5
     46a:	4f 90       	pop	r4
     46c:	3f 90       	pop	r3
     46e:	2f 90       	pop	r2
     470:	08 95       	ret

00000472 <Show_Frontpanel>:

#include "IO.h"
#include "Frontpanel.h"

void Show_Frontpanel(Show *Frontpanel)
{
     472:	ac 01       	movw	r20, r24
	_Latch(OFF)
     474:	88 b3       	in	r24, 0x18	; 24
     476:	8f 7e       	andi	r24, 0xEF	; 239
     478:	88 bb       	out	0x18, r24	; 24
	
	for (uint8_t i = 0; i <= 15; i++)
     47a:	90 e0       	ldi	r25, 0x00	; 0
     47c:	17 c0       	rjmp	.+46     	; 0x4ac <Show_Frontpanel+0x3a>
	{
		if (Frontpanel->Frontpanel[i])
     47e:	fa 01       	movw	r30, r20
     480:	e9 0f       	add	r30, r25
     482:	f1 1d       	adc	r31, r1
     484:	20 81       	ld	r18, Z
     486:	22 23       	and	r18, r18
     488:	21 f0       	breq	.+8      	; 0x492 <Show_Frontpanel+0x20>
		{
			_Daten(ON)
     48a:	28 b3       	in	r18, 0x18	; 24
     48c:	20 62       	ori	r18, 0x20	; 32
     48e:	28 bb       	out	0x18, r18	; 24
     490:	03 c0       	rjmp	.+6      	; 0x498 <Show_Frontpanel+0x26>
		}else{
			_Daten(OFF)
     492:	28 b3       	in	r18, 0x18	; 24
     494:	2f 7d       	andi	r18, 0xDF	; 223
     496:	28 bb       	out	0x18, r18	; 24
		}
		_Takt(ON)
     498:	28 b3       	in	r18, 0x18	; 24
     49a:	20 64       	ori	r18, 0x40	; 64
     49c:	28 bb       	out	0x18, r18	; 24
		_Takt(OFF)
     49e:	28 b3       	in	r18, 0x18	; 24
     4a0:	2f 7b       	andi	r18, 0xBF	; 191
     4a2:	28 bb       	out	0x18, r18	; 24
		_Daten(OFF)
     4a4:	28 b3       	in	r18, 0x18	; 24
     4a6:	2f 7d       	andi	r18, 0xDF	; 223
     4a8:	28 bb       	out	0x18, r18	; 24

void Show_Frontpanel(Show *Frontpanel)
{
	_Latch(OFF)
	
	for (uint8_t i = 0; i <= 15; i++)
     4aa:	9f 5f       	subi	r25, 0xFF	; 255
     4ac:	90 31       	cpi	r25, 0x10	; 16
     4ae:	38 f3       	brcs	.-50     	; 0x47e <Show_Frontpanel+0xc>
		_Takt(ON)
		_Takt(OFF)
		_Daten(OFF)
	}
	
	_Latch(ON)
     4b0:	88 b3       	in	r24, 0x18	; 24
     4b2:	80 61       	ori	r24, 0x10	; 16
     4b4:	88 bb       	out	0x18, r24	; 24
     4b6:	08 95       	ret

000004b8 <Write_Frontpanel>:
}

void Write_Frontpanel (uint8_t LED, uint8_t Zustand)
{
	Frontpanel.Frontpanel[LED] = Zustand;
     4b8:	e8 2f       	mov	r30, r24
     4ba:	f0 e0       	ldi	r31, 0x00	; 0
     4bc:	e1 59       	subi	r30, 0x91	; 145
     4be:	fc 4f       	sbci	r31, 0xFC	; 252
     4c0:	60 83       	st	Z, r22
     4c2:	08 95       	ret

000004c4 <Update_Frontpanel>:
}

void Update_Frontpanel (Show *Frontpanel, PWM_Setting *PWM)
{
     4c4:	cf 93       	push	r28
     4c6:	df 93       	push	r29
     4c8:	eb 01       	movw	r28, r22
	if ( (PWM->PWM_Enabel[PWM_Pumpe] == 1) && (PWM->PWM_Wert[PWM_Pumpe] != 0) )
     4ca:	88 81       	ld	r24, Y
     4cc:	81 30       	cpi	r24, 0x01	; 1
     4ce:	41 f4       	brne	.+16     	; 0x4e0 <Update_Frontpanel+0x1c>
     4d0:	8a 85       	ldd	r24, Y+10	; 0x0a
     4d2:	88 23       	and	r24, r24
     4d4:	29 f0       	breq	.+10     	; 0x4e0 <Update_Frontpanel+0x1c>
	{
		Write_Frontpanel(F_PUMPE, ON);
     4d6:	61 e0       	ldi	r22, 0x01	; 1
     4d8:	8a e0       	ldi	r24, 0x0A	; 10
     4da:	0e 94 5c 02 	call	0x4b8	; 0x4b8 <Write_Frontpanel>
     4de:	04 c0       	rjmp	.+8      	; 0x4e8 <Update_Frontpanel+0x24>
	}else{
		Write_Frontpanel(F_PUMPE, OFF);
     4e0:	60 e0       	ldi	r22, 0x00	; 0
     4e2:	8a e0       	ldi	r24, 0x0A	; 10
     4e4:	0e 94 5c 02 	call	0x4b8	; 0x4b8 <Write_Frontpanel>
	}
	
	if ( (PWM->PWM_Enabel[PWM_Heizung] == 1) && (PWM->PWM_Wert[PWM_Heizung] != 0) )
     4e8:	89 81       	ldd	r24, Y+1	; 0x01
     4ea:	81 30       	cpi	r24, 0x01	; 1
     4ec:	41 f4       	brne	.+16     	; 0x4fe <Update_Frontpanel+0x3a>
     4ee:	8b 85       	ldd	r24, Y+11	; 0x0b
     4f0:	88 23       	and	r24, r24
     4f2:	29 f0       	breq	.+10     	; 0x4fe <Update_Frontpanel+0x3a>
	{
		Write_Frontpanel(F_HEIZUNG, ON);	
     4f4:	61 e0       	ldi	r22, 0x01	; 1
     4f6:	8c e0       	ldi	r24, 0x0C	; 12
     4f8:	0e 94 5c 02 	call	0x4b8	; 0x4b8 <Write_Frontpanel>
     4fc:	04 c0       	rjmp	.+8      	; 0x506 <Update_Frontpanel+0x42>
		}else{
		Write_Frontpanel( F_HEIZUNG, OFF);
     4fe:	60 e0       	ldi	r22, 0x00	; 0
     500:	8c e0       	ldi	r24, 0x0C	; 12
     502:	0e 94 5c 02 	call	0x4b8	; 0x4b8 <Write_Frontpanel>
	}	
	
	if ( ( (PWM->PWM_Enabel[PWM_Lufter1] || PWM->PWM_Enabel[PWM_Lufter2]) == 1) && ( (PWM->PWM_Wert[PWM_Lufter1] || PWM->PWM_Wert[PWM_Lufter2]) != 0) )
     506:	8a 81       	ldd	r24, Y+2	; 0x02
     508:	81 11       	cpse	r24, r1
     50a:	06 c0       	rjmp	.+12     	; 0x518 <Update_Frontpanel+0x54>
     50c:	8b 81       	ldd	r24, Y+3	; 0x03
     50e:	88 23       	and	r24, r24
     510:	31 f0       	breq	.+12     	; 0x51e <Update_Frontpanel+0x5a>
     512:	81 e0       	ldi	r24, 0x01	; 1
     514:	90 e0       	ldi	r25, 0x00	; 0
     516:	05 c0       	rjmp	.+10     	; 0x522 <Update_Frontpanel+0x5e>
     518:	81 e0       	ldi	r24, 0x01	; 1
     51a:	90 e0       	ldi	r25, 0x00	; 0
     51c:	02 c0       	rjmp	.+4      	; 0x522 <Update_Frontpanel+0x5e>
     51e:	80 e0       	ldi	r24, 0x00	; 0
     520:	90 e0       	ldi	r25, 0x00	; 0
     522:	81 30       	cpi	r24, 0x01	; 1
     524:	91 05       	cpc	r25, r1
     526:	79 f4       	brne	.+30     	; 0x546 <Update_Frontpanel+0x82>
     528:	2c 85       	ldd	r18, Y+12	; 0x0c
     52a:	21 11       	cpse	r18, r1
     52c:	05 c0       	rjmp	.+10     	; 0x538 <Update_Frontpanel+0x74>
     52e:	2d 85       	ldd	r18, Y+13	; 0x0d
     530:	21 11       	cpse	r18, r1
     532:	02 c0       	rjmp	.+4      	; 0x538 <Update_Frontpanel+0x74>
     534:	80 e0       	ldi	r24, 0x00	; 0
     536:	90 e0       	ldi	r25, 0x00	; 0
     538:	89 2b       	or	r24, r25
     53a:	29 f0       	breq	.+10     	; 0x546 <Update_Frontpanel+0x82>
	{
		Write_Frontpanel(F_LUFTER, ON);
     53c:	61 e0       	ldi	r22, 0x01	; 1
     53e:	8b e0       	ldi	r24, 0x0B	; 11
     540:	0e 94 5c 02 	call	0x4b8	; 0x4b8 <Write_Frontpanel>
     544:	04 c0       	rjmp	.+8      	; 0x54e <Update_Frontpanel+0x8a>
	}else{
		Write_Frontpanel(F_LUFTER, OFF);	
     546:	60 e0       	ldi	r22, 0x00	; 0
     548:	8b e0       	ldi	r24, 0x0B	; 11
     54a:	0e 94 5c 02 	call	0x4b8	; 0x4b8 <Write_Frontpanel>
	}
	
	if	( 
			( ( PWM->PWM_Enabel[PWM_Grun1] || PWM->PWM_Enabel[PWM_Rot1] || PWM->PWM_Enabel[PWM_Blau1] == 1 ||PWM->PWM_Enabel[PWM_Grun2] || PWM->PWM_Enabel[PWM_Rot2] || PWM->PWM_Enabel[PWM_Blau2]) == 1)	
     54e:	8d 81       	ldd	r24, Y+5	; 0x05
     550:	81 11       	cpse	r24, r1
     552:	12 c0       	rjmp	.+36     	; 0x578 <Update_Frontpanel+0xb4>
     554:	8c 81       	ldd	r24, Y+4	; 0x04
     556:	81 11       	cpse	r24, r1
     558:	12 c0       	rjmp	.+36     	; 0x57e <Update_Frontpanel+0xba>
     55a:	8e 81       	ldd	r24, Y+6	; 0x06
     55c:	81 30       	cpi	r24, 0x01	; 1
     55e:	91 f0       	breq	.+36     	; 0x584 <Update_Frontpanel+0xc0>
     560:	88 85       	ldd	r24, Y+8	; 0x08
     562:	81 11       	cpse	r24, r1
     564:	12 c0       	rjmp	.+36     	; 0x58a <Update_Frontpanel+0xc6>
     566:	8f 81       	ldd	r24, Y+7	; 0x07
     568:	81 11       	cpse	r24, r1
     56a:	12 c0       	rjmp	.+36     	; 0x590 <Update_Frontpanel+0xcc>
     56c:	89 85       	ldd	r24, Y+9	; 0x09
     56e:	88 23       	and	r24, r24
     570:	91 f0       	breq	.+36     	; 0x596 <Update_Frontpanel+0xd2>
     572:	81 e0       	ldi	r24, 0x01	; 1
     574:	90 e0       	ldi	r25, 0x00	; 0
     576:	11 c0       	rjmp	.+34     	; 0x59a <Update_Frontpanel+0xd6>
     578:	81 e0       	ldi	r24, 0x01	; 1
     57a:	90 e0       	ldi	r25, 0x00	; 0
     57c:	0e c0       	rjmp	.+28     	; 0x59a <Update_Frontpanel+0xd6>
     57e:	81 e0       	ldi	r24, 0x01	; 1
     580:	90 e0       	ldi	r25, 0x00	; 0
     582:	0b c0       	rjmp	.+22     	; 0x59a <Update_Frontpanel+0xd6>
     584:	81 e0       	ldi	r24, 0x01	; 1
     586:	90 e0       	ldi	r25, 0x00	; 0
     588:	08 c0       	rjmp	.+16     	; 0x59a <Update_Frontpanel+0xd6>
     58a:	81 e0       	ldi	r24, 0x01	; 1
     58c:	90 e0       	ldi	r25, 0x00	; 0
     58e:	05 c0       	rjmp	.+10     	; 0x59a <Update_Frontpanel+0xd6>
     590:	81 e0       	ldi	r24, 0x01	; 1
     592:	90 e0       	ldi	r25, 0x00	; 0
     594:	02 c0       	rjmp	.+4      	; 0x59a <Update_Frontpanel+0xd6>
     596:	80 e0       	ldi	r24, 0x00	; 0
     598:	90 e0       	ldi	r25, 0x00	; 0
		Write_Frontpanel(F_LUFTER, ON);
	}else{
		Write_Frontpanel(F_LUFTER, OFF);	
	}
	
	if	( 
     59a:	81 30       	cpi	r24, 0x01	; 1
     59c:	91 05       	cpc	r25, r1
     59e:	d9 f4       	brne	.+54     	; 0x5d6 <Update_Frontpanel+0x112>
			( ( PWM->PWM_Enabel[PWM_Grun1] || PWM->PWM_Enabel[PWM_Rot1] || PWM->PWM_Enabel[PWM_Blau1] == 1 ||PWM->PWM_Enabel[PWM_Grun2] || PWM->PWM_Enabel[PWM_Rot2] || PWM->PWM_Enabel[PWM_Blau2]) == 1)	
			&& 
			( ( PWM->PWM_Wert[PWM_Grun1] || PWM->PWM_Wert[PWM_Rot1] || PWM->PWM_Wert[PWM_Blau1] == 1 ||PWM->PWM_Wert[PWM_Grun2] || PWM->PWM_Wert[PWM_Rot2] || PWM->PWM_Wert[PWM_Blau2]) == 1)
     5a0:	2f 85       	ldd	r18, Y+15	; 0x0f
     5a2:	21 11       	cpse	r18, r1
     5a4:	11 c0       	rjmp	.+34     	; 0x5c8 <Update_Frontpanel+0x104>
     5a6:	2e 85       	ldd	r18, Y+14	; 0x0e
     5a8:	21 11       	cpse	r18, r1
     5aa:	0e c0       	rjmp	.+28     	; 0x5c8 <Update_Frontpanel+0x104>
     5ac:	28 89       	ldd	r18, Y+16	; 0x10
     5ae:	21 30       	cpi	r18, 0x01	; 1
     5b0:	59 f0       	breq	.+22     	; 0x5c8 <Update_Frontpanel+0x104>
     5b2:	2a 89       	ldd	r18, Y+18	; 0x12
     5b4:	21 11       	cpse	r18, r1
     5b6:	08 c0       	rjmp	.+16     	; 0x5c8 <Update_Frontpanel+0x104>
     5b8:	29 89       	ldd	r18, Y+17	; 0x11
     5ba:	21 11       	cpse	r18, r1
     5bc:	05 c0       	rjmp	.+10     	; 0x5c8 <Update_Frontpanel+0x104>
     5be:	2b 89       	ldd	r18, Y+19	; 0x13
     5c0:	21 11       	cpse	r18, r1
     5c2:	02 c0       	rjmp	.+4      	; 0x5c8 <Update_Frontpanel+0x104>
     5c4:	80 e0       	ldi	r24, 0x00	; 0
     5c6:	90 e0       	ldi	r25, 0x00	; 0
		Write_Frontpanel(F_LUFTER, OFF);	
	}
	
	if	( 
			( ( PWM->PWM_Enabel[PWM_Grun1] || PWM->PWM_Enabel[PWM_Rot1] || PWM->PWM_Enabel[PWM_Blau1] == 1 ||PWM->PWM_Enabel[PWM_Grun2] || PWM->PWM_Enabel[PWM_Rot2] || PWM->PWM_Enabel[PWM_Blau2]) == 1)	
			&& 
     5c8:	01 97       	sbiw	r24, 0x01	; 1
     5ca:	29 f4       	brne	.+10     	; 0x5d6 <Update_Frontpanel+0x112>
			( ( PWM->PWM_Wert[PWM_Grun1] || PWM->PWM_Wert[PWM_Rot1] || PWM->PWM_Wert[PWM_Blau1] == 1 ||PWM->PWM_Wert[PWM_Grun2] || PWM->PWM_Wert[PWM_Rot2] || PWM->PWM_Wert[PWM_Blau2]) == 1)
		)
	{
		Write_Frontpanel(F_RGB, ON);
     5cc:	61 e0       	ldi	r22, 0x01	; 1
     5ce:	89 e0       	ldi	r24, 0x09	; 9
     5d0:	0e 94 5c 02 	call	0x4b8	; 0x4b8 <Write_Frontpanel>
     5d4:	04 c0       	rjmp	.+8      	; 0x5de <Update_Frontpanel+0x11a>
	}else{
		Write_Frontpanel(F_RGB, OFF);
     5d6:	60 e0       	ldi	r22, 0x00	; 0
     5d8:	89 e0       	ldi	r24, 0x09	; 9
     5da:	0e 94 5c 02 	call	0x4b8	; 0x4b8 <Write_Frontpanel>
	}
	
	if (PWM->SM_Flag)
     5de:	8c 89       	ldd	r24, Y+20	; 0x14
     5e0:	88 23       	and	r24, r24
     5e2:	29 f0       	breq	.+10     	; 0x5ee <Update_Frontpanel+0x12a>
	{
		Write_Frontpanel(F_SM, ON);
     5e4:	61 e0       	ldi	r22, 0x01	; 1
     5e6:	88 e0       	ldi	r24, 0x08	; 8
     5e8:	0e 94 5c 02 	call	0x4b8	; 0x4b8 <Write_Frontpanel>
     5ec:	04 c0       	rjmp	.+8      	; 0x5f6 <Update_Frontpanel+0x132>
	}else{
		Write_Frontpanel(F_SM, OFF);
     5ee:	60 e0       	ldi	r22, 0x00	; 0
     5f0:	88 e0       	ldi	r24, 0x08	; 8
     5f2:	0e 94 5c 02 	call	0x4b8	; 0x4b8 <Write_Frontpanel>
		
	}
     5f6:	df 91       	pop	r29
     5f8:	cf 91       	pop	r28
     5fa:	08 95       	ret

000005fc <Init_GPIO>:
	}
	else
	{
		return ON;
	}
}
     5fc:	dc 01       	movw	r26, r24
     5fe:	8a b3       	in	r24, 0x1a	; 26
     600:	88 60       	ori	r24, 0x08	; 8
     602:	8a bb       	out	0x1a, r24	; 26
     604:	8a b3       	in	r24, 0x1a	; 26
     606:	80 61       	ori	r24, 0x10	; 16
     608:	8a bb       	out	0x1a, r24	; 26
     60a:	8a b3       	in	r24, 0x1a	; 26
     60c:	80 62       	ori	r24, 0x20	; 32
     60e:	8a bb       	out	0x1a, r24	; 26
     610:	8a b3       	in	r24, 0x1a	; 26
     612:	80 64       	ori	r24, 0x40	; 64
     614:	8a bb       	out	0x1a, r24	; 26
     616:	87 b3       	in	r24, 0x17	; 23
     618:	84 60       	ori	r24, 0x04	; 4
     61a:	87 bb       	out	0x17, r24	; 23
     61c:	82 b1       	in	r24, 0x02	; 2
     61e:	84 60       	ori	r24, 0x04	; 4
     620:	82 b9       	out	0x02, r24	; 2
     622:	84 b3       	in	r24, 0x14	; 20
     624:	80 64       	ori	r24, 0x40	; 64
     626:	84 bb       	out	0x14, r24	; 20
     628:	84 b3       	in	r24, 0x14	; 20
     62a:	80 62       	ori	r24, 0x20	; 32
     62c:	84 bb       	out	0x14, r24	; 20
     62e:	84 b3       	in	r24, 0x14	; 20
     630:	80 61       	ori	r24, 0x10	; 16
     632:	84 bb       	out	0x14, r24	; 20
     634:	8a b3       	in	r24, 0x1a	; 26
     636:	80 68       	ori	r24, 0x80	; 128
     638:	8a bb       	out	0x1a, r24	; 26
     63a:	e4 e6       	ldi	r30, 0x64	; 100
     63c:	f0 e0       	ldi	r31, 0x00	; 0
     63e:	80 81       	ld	r24, Z
     640:	84 60       	ori	r24, 0x04	; 4
     642:	80 83       	st	Z, r24
     644:	84 b3       	in	r24, 0x14	; 20
     646:	80 68       	ori	r24, 0x80	; 128
     648:	84 bb       	out	0x14, r24	; 20
     64a:	87 b3       	in	r24, 0x17	; 23
     64c:	80 61       	ori	r24, 0x10	; 16
     64e:	87 bb       	out	0x17, r24	; 23
     650:	87 b3       	in	r24, 0x17	; 23
     652:	80 62       	ori	r24, 0x20	; 32
     654:	87 bb       	out	0x17, r24	; 23
     656:	87 b3       	in	r24, 0x17	; 23
     658:	80 64       	ori	r24, 0x40	; 64
     65a:	87 bb       	out	0x17, r24	; 23
     65c:	81 b3       	in	r24, 0x11	; 17
     65e:	80 64       	ori	r24, 0x40	; 64
     660:	81 bb       	out	0x11, r24	; 17
     662:	81 b3       	in	r24, 0x11	; 17
     664:	80 68       	ori	r24, 0x80	; 128
     666:	81 bb       	out	0x11, r24	; 17
     668:	80 81       	ld	r24, Z
     66a:	81 60       	ori	r24, 0x01	; 1
     66c:	80 83       	st	Z, r24
     66e:	80 81       	ld	r24, Z
     670:	82 60       	ori	r24, 0x02	; 2
     672:	80 83       	st	Z, r24
     674:	84 b3       	in	r24, 0x14	; 20
     676:	81 60       	ori	r24, 0x01	; 1
     678:	84 bb       	out	0x14, r24	; 20
     67a:	84 b3       	in	r24, 0x14	; 20
     67c:	82 60       	ori	r24, 0x02	; 2
     67e:	84 bb       	out	0x14, r24	; 20
     680:	84 b3       	in	r24, 0x14	; 20
     682:	84 60       	ori	r24, 0x04	; 4
     684:	84 bb       	out	0x14, r24	; 20
     686:	84 b3       	in	r24, 0x14	; 20
     688:	88 60       	ori	r24, 0x08	; 8
     68a:	84 bb       	out	0x14, r24	; 20
     68c:	8a b3       	in	r24, 0x1a	; 26
     68e:	81 60       	ori	r24, 0x01	; 1
     690:	8a bb       	out	0x1a, r24	; 26
     692:	8a b3       	in	r24, 0x1a	; 26
     694:	82 60       	ori	r24, 0x02	; 2
     696:	8a bb       	out	0x1a, r24	; 26
     698:	87 b3       	in	r24, 0x17	; 23
     69a:	81 60       	ori	r24, 0x01	; 1
     69c:	87 bb       	out	0x17, r24	; 23
     69e:	87 b3       	in	r24, 0x17	; 23
     6a0:	82 60       	ori	r24, 0x02	; 2
     6a2:	87 bb       	out	0x17, r24	; 23
     6a4:	82 b1       	in	r24, 0x02	; 2
     6a6:	80 68       	ori	r24, 0x80	; 128
     6a8:	82 b9       	out	0x02, r24	; 2
     6aa:	87 b3       	in	r24, 0x17	; 23
     6ac:	88 60       	ori	r24, 0x08	; 8
     6ae:	87 bb       	out	0x17, r24	; 23
     6b0:	9b b3       	in	r25, 0x1b	; 27
     6b2:	91 60       	ori	r25, 0x01	; 1
     6b4:	9b bb       	out	0x1b, r25	; 27
     6b6:	9b b3       	in	r25, 0x1b	; 27
     6b8:	92 60       	ori	r25, 0x02	; 2
     6ba:	9b bb       	out	0x1b, r25	; 27
     6bc:	98 b3       	in	r25, 0x18	; 24
     6be:	91 60       	ori	r25, 0x01	; 1
     6c0:	98 bb       	out	0x18, r25	; 24
     6c2:	98 b3       	in	r25, 0x18	; 24
     6c4:	92 60       	ori	r25, 0x02	; 2
     6c6:	98 bb       	out	0x18, r25	; 24
     6c8:	93 b1       	in	r25, 0x03	; 3
     6ca:	90 68       	ori	r25, 0x80	; 128
     6cc:	93 b9       	out	0x03, r25	; 3
     6ce:	98 b3       	in	r25, 0x18	; 24
     6d0:	98 60       	ori	r25, 0x08	; 8
     6d2:	98 bb       	out	0x18, r25	; 24
     6d4:	54 96       	adiw	r26, 0x14	; 20
     6d6:	1c 92       	st	X, r1
     6d8:	08 95       	ret

000006da <PWM_Generator>:

void PWM_Generator(PWM_Setting *PWM)
{
     6da:	fc 01       	movw	r30, r24
	volatile static uint8_t Counter = 0;
	if (Counter == 255) Counter == 0;
     6dc:	80 91 b1 02 	lds	r24, 0x02B1	; 0x8002b1 <Counter.2085>
     6e0:	8f 3f       	cpi	r24, 0xFF	; 255
     6e2:	11 f4       	brne	.+4      	; 0x6e8 <PWM_Generator+0xe>
     6e4:	80 91 b1 02 	lds	r24, 0x02B1	; 0x8002b1 <Counter.2085>


	if (PWM->PWM_Enabel[PWM_Pumpe]   == 1 && PWM->PWM_Wert[PWM_Pumpe] == Counter)   _Pumpe(ON)
     6e8:	80 81       	ld	r24, Z
     6ea:	81 30       	cpi	r24, 0x01	; 1
     6ec:	41 f4       	brne	.+16     	; 0x6fe <PWM_Generator+0x24>
     6ee:	92 85       	ldd	r25, Z+10	; 0x0a
     6f0:	80 91 b1 02 	lds	r24, 0x02B1	; 0x8002b1 <Counter.2085>
     6f4:	98 13       	cpse	r25, r24
     6f6:	03 c0       	rjmp	.+6      	; 0x6fe <PWM_Generator+0x24>
     6f8:	8b b3       	in	r24, 0x1b	; 27
     6fa:	88 60       	ori	r24, 0x08	; 8
     6fc:	8b bb       	out	0x1b, r24	; 27
	if (PWM->PWM_Enabel[PWM_Heizung] == 1 && PWM->PWM_Wert[PWM_Heizung] == Counter) _Heizung(ON)
     6fe:	81 81       	ldd	r24, Z+1	; 0x01
     700:	81 30       	cpi	r24, 0x01	; 1
     702:	41 f4       	brne	.+16     	; 0x714 <PWM_Generator+0x3a>
     704:	93 85       	ldd	r25, Z+11	; 0x0b
     706:	80 91 b1 02 	lds	r24, 0x02B1	; 0x8002b1 <Counter.2085>
     70a:	98 13       	cpse	r25, r24
     70c:	03 c0       	rjmp	.+6      	; 0x714 <PWM_Generator+0x3a>
     70e:	8b b3       	in	r24, 0x1b	; 27
     710:	80 61       	ori	r24, 0x10	; 16
     712:	8b bb       	out	0x1b, r24	; 27
	if (PWM->PWM_Enabel[PWM_Lufter1] == 1 && PWM->PWM_Wert[PWM_Lufter1] == Counter) _Lufter1(ON)
     714:	82 81       	ldd	r24, Z+2	; 0x02
     716:	81 30       	cpi	r24, 0x01	; 1
     718:	41 f4       	brne	.+16     	; 0x72a <PWM_Generator+0x50>
     71a:	94 85       	ldd	r25, Z+12	; 0x0c
     71c:	80 91 b1 02 	lds	r24, 0x02B1	; 0x8002b1 <Counter.2085>
     720:	98 13       	cpse	r25, r24
     722:	03 c0       	rjmp	.+6      	; 0x72a <PWM_Generator+0x50>
     724:	8b b3       	in	r24, 0x1b	; 27
     726:	80 62       	ori	r24, 0x20	; 32
     728:	8b bb       	out	0x1b, r24	; 27
	if (PWM->PWM_Enabel[PWM_Lufter2] == 1 && PWM->PWM_Wert[PWM_Lufter2] == Counter) _Lufter2(ON)
     72a:	83 81       	ldd	r24, Z+3	; 0x03
     72c:	81 30       	cpi	r24, 0x01	; 1
     72e:	41 f4       	brne	.+16     	; 0x740 <PWM_Generator+0x66>
     730:	95 85       	ldd	r25, Z+13	; 0x0d
     732:	80 91 b1 02 	lds	r24, 0x02B1	; 0x8002b1 <Counter.2085>
     736:	98 13       	cpse	r25, r24
     738:	03 c0       	rjmp	.+6      	; 0x740 <PWM_Generator+0x66>
     73a:	8b b3       	in	r24, 0x1b	; 27
     73c:	80 64       	ori	r24, 0x40	; 64
     73e:	8b bb       	out	0x1b, r24	; 27
	if (PWM->PWM_Enabel[PWM_Rot1]    == 1 && PWM->PWM_Wert[PWM_Rot1] == Counter)    _Rot1(ON)
     740:	84 81       	ldd	r24, Z+4	; 0x04
     742:	81 30       	cpi	r24, 0x01	; 1
     744:	41 f4       	brne	.+16     	; 0x756 <PWM_Generator+0x7c>
     746:	96 85       	ldd	r25, Z+14	; 0x0e
     748:	80 91 b1 02 	lds	r24, 0x02B1	; 0x8002b1 <Counter.2085>
     74c:	98 13       	cpse	r25, r24
     74e:	03 c0       	rjmp	.+6      	; 0x756 <PWM_Generator+0x7c>
     750:	85 b3       	in	r24, 0x15	; 21
     752:	80 64       	ori	r24, 0x40	; 64
     754:	85 bb       	out	0x15, r24	; 21
	if (PWM->PWM_Enabel[PWM_Grun1]   == 1 && PWM->PWM_Wert[PWM_Grun1] == Counter)   _Grun1(ON)
     756:	85 81       	ldd	r24, Z+5	; 0x05
     758:	81 30       	cpi	r24, 0x01	; 1
     75a:	41 f4       	brne	.+16     	; 0x76c <PWM_Generator+0x92>
     75c:	97 85       	ldd	r25, Z+15	; 0x0f
     75e:	80 91 b1 02 	lds	r24, 0x02B1	; 0x8002b1 <Counter.2085>
     762:	98 13       	cpse	r25, r24
     764:	03 c0       	rjmp	.+6      	; 0x76c <PWM_Generator+0x92>
     766:	85 b3       	in	r24, 0x15	; 21
     768:	80 62       	ori	r24, 0x20	; 32
     76a:	85 bb       	out	0x15, r24	; 21
	if (PWM->PWM_Enabel[PWM_Blau1]   == 1 && PWM->PWM_Wert[PWM_Blau1] == Counter)   _Blau1(ON)
     76c:	86 81       	ldd	r24, Z+6	; 0x06
     76e:	81 30       	cpi	r24, 0x01	; 1
     770:	41 f4       	brne	.+16     	; 0x782 <PWM_Generator+0xa8>
     772:	90 89       	ldd	r25, Z+16	; 0x10
     774:	80 91 b1 02 	lds	r24, 0x02B1	; 0x8002b1 <Counter.2085>
     778:	98 13       	cpse	r25, r24
     77a:	03 c0       	rjmp	.+6      	; 0x782 <PWM_Generator+0xa8>
     77c:	85 b3       	in	r24, 0x15	; 21
     77e:	80 61       	ori	r24, 0x10	; 16
     780:	85 bb       	out	0x15, r24	; 21
	if (PWM->PWM_Enabel[PWM_Rot2]    == 1 && PWM->PWM_Wert[PWM_Rot2] == Counter)    _Rot2(ON)
     782:	87 81       	ldd	r24, Z+7	; 0x07
     784:	81 30       	cpi	r24, 0x01	; 1
     786:	41 f4       	brne	.+16     	; 0x798 <PWM_Generator+0xbe>
     788:	91 89       	ldd	r25, Z+17	; 0x11
     78a:	80 91 b1 02 	lds	r24, 0x02B1	; 0x8002b1 <Counter.2085>
     78e:	98 13       	cpse	r25, r24
     790:	03 c0       	rjmp	.+6      	; 0x798 <PWM_Generator+0xbe>
     792:	8b b3       	in	r24, 0x1b	; 27
     794:	80 68       	ori	r24, 0x80	; 128
     796:	8b bb       	out	0x1b, r24	; 27
	if (PWM->PWM_Enabel[PWM_Grun2]   == 1 && PWM->PWM_Wert[PWM_Grun2] == Counter)   _Grun2(ON)
     798:	80 85       	ldd	r24, Z+8	; 0x08
     79a:	81 30       	cpi	r24, 0x01	; 1
     79c:	51 f4       	brne	.+20     	; 0x7b2 <PWM_Generator+0xd8>
     79e:	92 89       	ldd	r25, Z+18	; 0x12
     7a0:	80 91 b1 02 	lds	r24, 0x02B1	; 0x8002b1 <Counter.2085>
     7a4:	98 13       	cpse	r25, r24
     7a6:	05 c0       	rjmp	.+10     	; 0x7b2 <PWM_Generator+0xd8>
     7a8:	a5 e6       	ldi	r26, 0x65	; 101
     7aa:	b0 e0       	ldi	r27, 0x00	; 0
     7ac:	8c 91       	ld	r24, X
     7ae:	84 60       	ori	r24, 0x04	; 4
     7b0:	8c 93       	st	X, r24
	if (PWM->PWM_Enabel[PWM_Blau2]   == 1 && PWM->PWM_Wert[PWM_Blau2] == Counter)   _Blau2(ON)
     7b2:	81 85       	ldd	r24, Z+9	; 0x09
     7b4:	81 30       	cpi	r24, 0x01	; 1
     7b6:	41 f4       	brne	.+16     	; 0x7c8 <PWM_Generator+0xee>
     7b8:	93 89       	ldd	r25, Z+19	; 0x13
     7ba:	80 91 b1 02 	lds	r24, 0x02B1	; 0x8002b1 <Counter.2085>
     7be:	98 13       	cpse	r25, r24
     7c0:	03 c0       	rjmp	.+6      	; 0x7c8 <PWM_Generator+0xee>
     7c2:	85 b3       	in	r24, 0x15	; 21
     7c4:	80 68       	ori	r24, 0x80	; 128
     7c6:	85 bb       	out	0x15, r24	; 21

	if (Counter == 254)
     7c8:	80 91 b1 02 	lds	r24, 0x02B1	; 0x8002b1 <Counter.2085>
     7cc:	8e 3f       	cpi	r24, 0xFE	; 254
     7ce:	f1 f4       	brne	.+60     	; 0x80c <__EEPROM_REGION_LENGTH__+0xc>
	{
		_Pumpe(OFF);
     7d0:	8b b3       	in	r24, 0x1b	; 27
     7d2:	87 7f       	andi	r24, 0xF7	; 247
     7d4:	8b bb       	out	0x1b, r24	; 27
		_Heizung(OFF);
     7d6:	8b b3       	in	r24, 0x1b	; 27
     7d8:	8f 7e       	andi	r24, 0xEF	; 239
     7da:	8b bb       	out	0x1b, r24	; 27
		_Lufter1(OFF);
     7dc:	8b b3       	in	r24, 0x1b	; 27
     7de:	8f 7d       	andi	r24, 0xDF	; 223
     7e0:	8b bb       	out	0x1b, r24	; 27
		_Lufter2(OFF);
     7e2:	8b b3       	in	r24, 0x1b	; 27
     7e4:	8f 7b       	andi	r24, 0xBF	; 191
     7e6:	8b bb       	out	0x1b, r24	; 27
		_Rot1(OFF);
     7e8:	85 b3       	in	r24, 0x15	; 21
     7ea:	8f 7b       	andi	r24, 0xBF	; 191
     7ec:	85 bb       	out	0x15, r24	; 21
		_Grun1(OFF);
     7ee:	85 b3       	in	r24, 0x15	; 21
     7f0:	8f 7d       	andi	r24, 0xDF	; 223
     7f2:	85 bb       	out	0x15, r24	; 21
		_Blau1(OFF);
     7f4:	85 b3       	in	r24, 0x15	; 21
     7f6:	8f 7e       	andi	r24, 0xEF	; 239
     7f8:	85 bb       	out	0x15, r24	; 21
		_Rot2(OFF);
     7fa:	8b b3       	in	r24, 0x1b	; 27
     7fc:	8f 77       	andi	r24, 0x7F	; 127
     7fe:	8b bb       	out	0x1b, r24	; 27
		_Grun2(OFF);
     800:	8b b3       	in	r24, 0x1b	; 27
     802:	8b 7f       	andi	r24, 0xFB	; 251
     804:	8b bb       	out	0x1b, r24	; 27
		_Blau2(OFF);
     806:	8b b3       	in	r24, 0x1b	; 27
     808:	8f 77       	andi	r24, 0x7F	; 127
     80a:	8b bb       	out	0x1b, r24	; 27

	}

	Counter++;
     80c:	80 91 b1 02 	lds	r24, 0x02B1	; 0x8002b1 <Counter.2085>
     810:	8f 5f       	subi	r24, 0xFF	; 255
     812:	80 93 b1 02 	sts	0x02B1, r24	; 0x8002b1 <Counter.2085>
     816:	08 95       	ret

00000818 <main>:
#include "Terminal.h"


int main (void)
{
	Init_GPIO(&PWM);
     818:	8f e7       	ldi	r24, 0x7F	; 127
     81a:	93 e0       	ldi	r25, 0x03	; 3
     81c:	0e 94 fe 02 	call	0x5fc	; 0x5fc <Init_GPIO>
    UART_Init(&UART0);
     820:	82 ee       	ldi	r24, 0xE2	; 226
     822:	92 e0       	ldi	r25, 0x02	; 2
     824:	0e 94 05 07 	call	0xe0a	; 0xe0a <UART_Init>
	Init_ADC(&ADW0);
     828:	87 eb       	ldi	r24, 0xB7	; 183
     82a:	92 e0       	ldi	r25, 0x02	; 2
     82c:	0e 94 e6 00 	call	0x1cc	; 0x1cc <Init_ADC>
	TWI_Init(&TWI);
     830:	84 e9       	ldi	r24, 0x94	; 148
     832:	93 e0       	ldi	r25, 0x03	; 3
     834:	0e 94 e0 04 	call	0x9c0	; 0x9c0 <TWI_Init>

    while(1)
    {
		

		Show_Terminal();
     838:	0e 94 5b 04 	call	0x8b6	; 0x8b6 <Show_Terminal>
	#else
		//round up by default
		__ticks_dc = (uint32_t)(ceil(fabs(__tmp)));
	#endif

	__builtin_avr_delay_cycles(__ticks_dc);
     83c:	2f ef       	ldi	r18, 0xFF	; 255
     83e:	83 ed       	ldi	r24, 0xD3	; 211
     840:	90 e3       	ldi	r25, 0x30	; 48
     842:	21 50       	subi	r18, 0x01	; 1
     844:	80 40       	sbci	r24, 0x00	; 0
     846:	90 40       	sbci	r25, 0x00	; 0
     848:	e1 f7       	brne	.-8      	; 0x842 <main+0x2a>
     84a:	00 c0       	rjmp	.+0      	; 0x84c <main+0x34>
     84c:	00 00       	nop
	
		_delay_ms(1000);
		
		

		_SET_PWM(PWM_Pumpe, 1);
     84e:	ef e7       	ldi	r30, 0x7F	; 127
     850:	f3 e0       	ldi	r31, 0x03	; 3
     852:	81 e0       	ldi	r24, 0x01	; 1
     854:	80 83       	st	Z, r24
     856:	82 87       	std	Z+10, r24	; 0x0a
		_SET_PWM(PWM_Heizung, 1);
     858:	81 83       	std	Z+1, r24	; 0x01
     85a:	83 87       	std	Z+11, r24	; 0x0b
		_SET_PWM(PWM_Lufter1, 1);
     85c:	82 83       	std	Z+2, r24	; 0x02
     85e:	84 87       	std	Z+12, r24	; 0x0c
		_SET_PWM(PWM_Rot1, 1);
     860:	84 83       	std	Z+4, r24	; 0x04
     862:	86 87       	std	Z+14, r24	; 0x0e
		PWM.SM_Flag = 1;
     864:	84 8b       	std	Z+20, r24	; 0x14
		
		PWM_Generator(&PWM);
     866:	cf 01       	movw	r24, r30
     868:	0e 94 6d 03 	call	0x6da	; 0x6da <PWM_Generator>
		
		Update_Frontpanel(&Frontpanel, &PWM);
     86c:	6f e7       	ldi	r22, 0x7F	; 127
     86e:	73 e0       	ldi	r23, 0x03	; 3
     870:	8f e6       	ldi	r24, 0x6F	; 111
     872:	93 e0       	ldi	r25, 0x03	; 3
     874:	0e 94 62 02 	call	0x4c4	; 0x4c4 <Update_Frontpanel>
		Show_Frontpanel(&Frontpanel);
     878:	8f e6       	ldi	r24, 0x6F	; 111
     87a:	93 e0       	ldi	r25, 0x03	; 3
     87c:	0e 94 39 02 	call	0x472	; 0x472 <Show_Frontpanel>
		
		I2C_GetLuminance();
     880:	0e 94 8b 05 	call	0xb16	; 0xb16 <I2C_GetLuminance>
		I2c_GetHumi();
     884:	0e 94 50 05 	call	0xaa0	; 0xaa0 <I2c_GetHumi>
		I2c_GetTemp();
     888:	0e 94 6d 05 	call	0xada	; 0xada <I2c_GetTemp>

		Start_ADC(&ADW0);
     88c:	87 eb       	ldi	r24, 0xB7	; 183
     88e:	92 e0       	ldi	r25, 0x02	; 2
     890:	0e 94 46 01 	call	0x28c	; 0x28c <Start_ADC>
		Calculate_ADC(&ADW0);
     894:	87 eb       	ldi	r24, 0xB7	; 183
     896:	92 e0       	ldi	r25, 0x02	; 2
     898:	0e 94 86 01 	call	0x30c	; 0x30c <Calculate_ADC>
		Calculate_TWI(&TWI);
     89c:	84 e9       	ldi	r24, 0x94	; 148
     89e:	93 e0       	ldi	r25, 0x03	; 3
     8a0:	0e 94 a8 05 	call	0xb50	; 0xb50 <Calculate_TWI>
		UART_RX_Handler(&UART0);
     8a4:	82 ee       	ldi	r24, 0xE2	; 226
     8a6:	92 e0       	ldi	r25, 0x02	; 2
     8a8:	0e 94 4d 07 	call	0xe9a	; 0xe9a <UART_RX_Handler>
		RX_Taskhandler(&UART0);
     8ac:	82 ee       	ldi	r24, 0xE2	; 226
     8ae:	92 e0       	ldi	r25, 0x02	; 2
     8b0:	0e 94 14 08 	call	0x1028	; 0x1028 <RX_Taskhandler>
     8b4:	c1 cf       	rjmp	.-126    	; 0x838 <main+0x20>

000008b6 <Show_Terminal>:
#include "Frontpanel.h"
#include "TWI.h"
#include "Terminal.h"

void Show_Terminal(void)
{
     8b6:	cf 93       	push	r28
     8b8:	df 93       	push	r29
	_Erase_Putty();
     8ba:	8a e3       	ldi	r24, 0x3A	; 58
     8bc:	91 e0       	ldi	r25, 0x01	; 1
     8be:	9f 93       	push	r25
     8c0:	8f 93       	push	r24
     8c2:	0e 94 04 12 	call	0x2408	; 0x2408 <printf>
	printf("SBIO V0.3 \n");
     8c6:	8d e3       	ldi	r24, 0x3D	; 61
     8c8:	91 e0       	ldi	r25, 0x01	; 1
     8ca:	0e 94 1a 12 	call	0x2434	; 0x2434 <puts>
	printf("Strom: %f \n", ADW0.ADC_Average[3]);
     8ce:	c7 eb       	ldi	r28, 0xB7	; 183
     8d0:	d2 e0       	ldi	r29, 0x02	; 2
     8d2:	8a 8d       	ldd	r24, Y+26	; 0x1a
     8d4:	8f 93       	push	r24
     8d6:	89 8d       	ldd	r24, Y+25	; 0x19
     8d8:	8f 93       	push	r24
     8da:	88 8d       	ldd	r24, Y+24	; 0x18
     8dc:	8f 93       	push	r24
     8de:	8f 89       	ldd	r24, Y+23	; 0x17
     8e0:	8f 93       	push	r24
     8e2:	88 e4       	ldi	r24, 0x48	; 72
     8e4:	91 e0       	ldi	r25, 0x01	; 1
     8e6:	9f 93       	push	r25
     8e8:	8f 93       	push	r24
     8ea:	0e 94 04 12 	call	0x2408	; 0x2408 <printf>
	printf("Spannung: %f \n", ADW0.ADC_Average[2]);
     8ee:	8e 89       	ldd	r24, Y+22	; 0x16
     8f0:	8f 93       	push	r24
     8f2:	8d 89       	ldd	r24, Y+21	; 0x15
     8f4:	8f 93       	push	r24
     8f6:	8c 89       	ldd	r24, Y+20	; 0x14
     8f8:	8f 93       	push	r24
     8fa:	8b 89       	ldd	r24, Y+19	; 0x13
     8fc:	8f 93       	push	r24
     8fe:	84 e5       	ldi	r24, 0x54	; 84
     900:	91 e0       	ldi	r25, 0x01	; 1
     902:	9f 93       	push	r25
     904:	8f 93       	push	r24
     906:	0e 94 04 12 	call	0x2408	; 0x2408 <printf>
	printf("GNDHUMI: %f \n", (ADW0.ADC_Average[1] + ADW0.ADC_Average[0]) / 2 );
     90a:	6f 85       	ldd	r22, Y+15	; 0x0f
     90c:	78 89       	ldd	r23, Y+16	; 0x10
     90e:	89 89       	ldd	r24, Y+17	; 0x11
     910:	9a 89       	ldd	r25, Y+18	; 0x12
     912:	2b 85       	ldd	r18, Y+11	; 0x0b
     914:	3c 85       	ldd	r19, Y+12	; 0x0c
     916:	4d 85       	ldd	r20, Y+13	; 0x0d
     918:	5e 85       	ldd	r21, Y+14	; 0x0e
     91a:	0e 94 01 0a 	call	0x1402	; 0x1402 <__addsf3>
     91e:	20 e0       	ldi	r18, 0x00	; 0
     920:	30 e0       	ldi	r19, 0x00	; 0
     922:	40 e0       	ldi	r20, 0x00	; 0
     924:	5f e3       	ldi	r21, 0x3F	; 63
     926:	0e 94 fc 0a 	call	0x15f8	; 0x15f8 <__mulsf3>
     92a:	9f 93       	push	r25
     92c:	8f 93       	push	r24
     92e:	7f 93       	push	r23
     930:	6f 93       	push	r22
     932:	83 e6       	ldi	r24, 0x63	; 99
     934:	91 e0       	ldi	r25, 0x01	; 1
     936:	9f 93       	push	r25
     938:	8f 93       	push	r24
     93a:	0e 94 04 12 	call	0x2408	; 0x2408 <printf>
	printf("HUMI: %3.1f \n", TWI.HUMI_Average);
     93e:	e4 e9       	ldi	r30, 0x94	; 148
     940:	f3 e0       	ldi	r31, 0x03	; 3
     942:	87 ad       	ldd	r24, Z+63	; 0x3f
     944:	8f 93       	push	r24
     946:	86 ad       	ldd	r24, Z+62	; 0x3e
     948:	8f 93       	push	r24
     94a:	85 ad       	ldd	r24, Z+61	; 0x3d
     94c:	8f 93       	push	r24
     94e:	84 ad       	ldd	r24, Z+60	; 0x3c
     950:	8f 93       	push	r24
     952:	81 e7       	ldi	r24, 0x71	; 113
     954:	91 e0       	ldi	r25, 0x01	; 1
     956:	9f 93       	push	r25
     958:	8f 93       	push	r24
     95a:	0e 94 04 12 	call	0x2408	; 0x2408 <printf>
	printf("TEMP: %3.1f \n", TWI.TEMP_Average);
     95e:	e4 ed       	ldi	r30, 0xD4	; 212
     960:	f3 e0       	ldi	r31, 0x03	; 3
     962:	83 81       	ldd	r24, Z+3	; 0x03
     964:	8f 93       	push	r24
     966:	82 81       	ldd	r24, Z+2	; 0x02
     968:	8f 93       	push	r24
     96a:	81 81       	ldd	r24, Z+1	; 0x01
     96c:	8f 93       	push	r24
     96e:	80 81       	ld	r24, Z
     970:	8f 93       	push	r24
     972:	8f e7       	ldi	r24, 0x7F	; 127
     974:	91 e0       	ldi	r25, 0x01	; 1
     976:	9f 93       	push	r25
     978:	8f 93       	push	r24
     97a:	0e 94 04 12 	call	0x2408	; 0x2408 <printf>
	printf("LUMI: %d \n", TWI.LUMI_Average);
     97e:	8d b7       	in	r24, 0x3d	; 61
     980:	9e b7       	in	r25, 0x3e	; 62
     982:	80 96       	adiw	r24, 0x20	; 32
     984:	0f b6       	in	r0, 0x3f	; 63
     986:	f8 94       	cli
     988:	9e bf       	out	0x3e, r25	; 62
     98a:	0f be       	out	0x3f, r0	; 63
     98c:	8d bf       	out	0x3d, r24	; 61
     98e:	e8 ed       	ldi	r30, 0xD8	; 216
     990:	f3 e0       	ldi	r31, 0x03	; 3
     992:	83 81       	ldd	r24, Z+3	; 0x03
     994:	8f 93       	push	r24
     996:	82 81       	ldd	r24, Z+2	; 0x02
     998:	8f 93       	push	r24
     99a:	81 81       	ldd	r24, Z+1	; 0x01
     99c:	8f 93       	push	r24
     99e:	80 81       	ld	r24, Z
     9a0:	8f 93       	push	r24
     9a2:	8d e8       	ldi	r24, 0x8D	; 141
     9a4:	91 e0       	ldi	r25, 0x01	; 1
     9a6:	9f 93       	push	r25
     9a8:	8f 93       	push	r24
     9aa:	0e 94 04 12 	call	0x2408	; 0x2408 <printf>
     9ae:	0f 90       	pop	r0
     9b0:	0f 90       	pop	r0
     9b2:	0f 90       	pop	r0
     9b4:	0f 90       	pop	r0
     9b6:	0f 90       	pop	r0
     9b8:	0f 90       	pop	r0
     9ba:	df 91       	pop	r29
     9bc:	cf 91       	pop	r28
     9be:	08 95       	ret

000009c0 <TWI_Init>:
{
	i2c_start();
	i2c_write(SensorAdr<<1);
	i2c_write(SensorCmd);
	i2c_stop();
}
     9c0:	88 e4       	ldi	r24, 0x48	; 72
     9c2:	80 93 70 00 	sts	0x0070, r24	; 0x800070 <__TEXT_REGION_LENGTH__+0x7f0070>
     9c6:	08 95       	ret

000009c8 <i2c_start>:
     9c8:	84 ea       	ldi	r24, 0xA4	; 164
     9ca:	80 93 74 00 	sts	0x0074, r24	; 0x800074 <__TEXT_REGION_LENGTH__+0x7f0074>
     9ce:	80 91 74 00 	lds	r24, 0x0074	; 0x800074 <__TEXT_REGION_LENGTH__+0x7f0074>
     9d2:	88 23       	and	r24, r24
     9d4:	e4 f7       	brge	.-8      	; 0x9ce <i2c_start+0x6>
     9d6:	08 95       	ret

000009d8 <i2c_stop>:
     9d8:	84 e9       	ldi	r24, 0x94	; 148
     9da:	80 93 74 00 	sts	0x0074, r24	; 0x800074 <__TEXT_REGION_LENGTH__+0x7f0074>
     9de:	08 95       	ret

000009e0 <i2c_write>:
     9e0:	80 93 73 00 	sts	0x0073, r24	; 0x800073 <__TEXT_REGION_LENGTH__+0x7f0073>
     9e4:	84 e8       	ldi	r24, 0x84	; 132
     9e6:	80 93 74 00 	sts	0x0074, r24	; 0x800074 <__TEXT_REGION_LENGTH__+0x7f0074>
     9ea:	80 91 74 00 	lds	r24, 0x0074	; 0x800074 <__TEXT_REGION_LENGTH__+0x7f0074>
     9ee:	88 23       	and	r24, r24
     9f0:	e4 f7       	brge	.-8      	; 0x9ea <i2c_write+0xa>
     9f2:	08 95       	ret

000009f4 <i2c_read>:
     9f4:	81 30       	cpi	r24, 0x01	; 1
     9f6:	21 f4       	brne	.+8      	; 0xa00 <i2c_read+0xc>
     9f8:	84 ec       	ldi	r24, 0xC4	; 196
     9fa:	80 93 74 00 	sts	0x0074, r24	; 0x800074 <__TEXT_REGION_LENGTH__+0x7f0074>
     9fe:	03 c0       	rjmp	.+6      	; 0xa06 <i2c_read+0x12>
     a00:	84 e8       	ldi	r24, 0x84	; 132
     a02:	80 93 74 00 	sts	0x0074, r24	; 0x800074 <__TEXT_REGION_LENGTH__+0x7f0074>
     a06:	80 91 74 00 	lds	r24, 0x0074	; 0x800074 <__TEXT_REGION_LENGTH__+0x7f0074>
     a0a:	88 23       	and	r24, r24
     a0c:	e4 f7       	brge	.-8      	; 0xa06 <i2c_read+0x12>
     a0e:	80 91 73 00 	lds	r24, 0x0073	; 0x800073 <__TEXT_REGION_LENGTH__+0x7f0073>
     a12:	08 95       	ret

00000a14 <i2c_doSensor_rd>:

uint16_t i2c_doSensor_rd(uint8_t SensorAdr)
{
     a14:	cf 93       	push	r28
     a16:	df 93       	push	r29
     a18:	c8 2f       	mov	r28, r24
	uint8_t i2c_HiByte;
	uint8_t i2c_LoByte;
	i2c_start();
     a1a:	0e 94 e4 04 	call	0x9c8	; 0x9c8 <i2c_start>
	i2c_write(SensorAdr<<1 | i2C_rd);
     a1e:	8c 2f       	mov	r24, r28
     a20:	90 e0       	ldi	r25, 0x00	; 0
     a22:	88 0f       	add	r24, r24
     a24:	99 1f       	adc	r25, r25
     a26:	81 60       	ori	r24, 0x01	; 1
     a28:	0e 94 f0 04 	call	0x9e0	; 0x9e0 <i2c_write>
	
	i2c_HiByte = i2c_read(i2C_ACK);
     a2c:	81 e0       	ldi	r24, 0x01	; 1
     a2e:	0e 94 fa 04 	call	0x9f4	; 0x9f4 <i2c_read>
     a32:	c8 2f       	mov	r28, r24

	i2c_LoByte = i2c_read(i2C_ACK);
     a34:	81 e0       	ldi	r24, 0x01	; 1
     a36:	0e 94 fa 04 	call	0x9f4	; 0x9f4 <i2c_read>
     a3a:	d8 2f       	mov	r29, r24
	i2c_stop();
     a3c:	0e 94 ec 04 	call	0x9d8	; 0x9d8 <i2c_stop>
	return ((i2c_HiByte << 8) | i2c_LoByte);
     a40:	8c 2f       	mov	r24, r28
     a42:	90 e0       	ldi	r25, 0x00	; 0
     a44:	98 2f       	mov	r25, r24
     a46:	88 27       	eor	r24, r24
}
     a48:	8d 2b       	or	r24, r29
     a4a:	df 91       	pop	r29
     a4c:	cf 91       	pop	r28
     a4e:	08 95       	ret

00000a50 <i2c_doSensor7021_rd>:

uint16_t i2c_doSensor7021_rd(uint8_t SensorAdr, uint8_t SensorMode)
{
     a50:	cf 93       	push	r28
     a52:	df 93       	push	r29
     a54:	c8 2f       	mov	r28, r24
     a56:	d6 2f       	mov	r29, r22
	uint8_t i2c_HiByte;
	uint8_t i2c_LoByte;
	i2c_start();
     a58:	0e 94 e4 04 	call	0x9c8	; 0x9c8 <i2c_start>
	i2c_write(SensorAdr<<1 | i2C_wr);
     a5c:	8c 2f       	mov	r24, r28
     a5e:	88 0f       	add	r24, r24
     a60:	0e 94 f0 04 	call	0x9e0	; 0x9e0 <i2c_write>
	i2c_write(SensorMode);
     a64:	8d 2f       	mov	r24, r29
     a66:	0e 94 f0 04 	call	0x9e0	; 0x9e0 <i2c_write>
	i2c_start();
     a6a:	0e 94 e4 04 	call	0x9c8	; 0x9c8 <i2c_start>
	i2c_write(SensorAdr<<1 | i2C_rd);
     a6e:	8c 2f       	mov	r24, r28
     a70:	90 e0       	ldi	r25, 0x00	; 0
     a72:	88 0f       	add	r24, r24
     a74:	99 1f       	adc	r25, r25
     a76:	81 60       	ori	r24, 0x01	; 1
     a78:	0e 94 f0 04 	call	0x9e0	; 0x9e0 <i2c_write>
	i2c_HiByte = i2c_read(i2C_ACK);
     a7c:	81 e0       	ldi	r24, 0x01	; 1
     a7e:	0e 94 fa 04 	call	0x9f4	; 0x9f4 <i2c_read>
     a82:	c8 2f       	mov	r28, r24
	i2c_LoByte = i2c_read(i2C_noACK);
     a84:	80 e0       	ldi	r24, 0x00	; 0
     a86:	0e 94 fa 04 	call	0x9f4	; 0x9f4 <i2c_read>
     a8a:	d8 2f       	mov	r29, r24
	i2c_stop();
     a8c:	0e 94 ec 04 	call	0x9d8	; 0x9d8 <i2c_stop>

	return ((i2c_HiByte << 8) | i2c_LoByte);
     a90:	8c 2f       	mov	r24, r28
     a92:	90 e0       	ldi	r25, 0x00	; 0
     a94:	98 2f       	mov	r25, r24
     a96:	88 27       	eor	r24, r24
}
     a98:	8d 2b       	or	r24, r29
     a9a:	df 91       	pop	r29
     a9c:	cf 91       	pop	r28
     a9e:	08 95       	ret

00000aa0 <I2c_GetHumi>:

void I2c_GetHumi(void)
{
     aa0:	cf 93       	push	r28
     aa2:	df 93       	push	r29
	static uint8_t counter = 0;
	if (counter == Mittelwerte) counter = 0;
     aa4:	80 91 b4 02 	lds	r24, 0x02B4	; 0x8002b4 <counter.2144>
     aa8:	8a 30       	cpi	r24, 0x0A	; 10
     aaa:	11 f4       	brne	.+4      	; 0xab0 <I2c_GetHumi+0x10>
     aac:	10 92 b4 02 	sts	0x02B4, r1	; 0x8002b4 <counter.2144>
	TWI.HUMI_Val[counter] = i2c_doSensor7021_rd(SensorAdr_Si7021, i2C_Humi);
     ab0:	c0 91 b4 02 	lds	r28, 0x02B4	; 0x8002b4 <counter.2144>
     ab4:	d0 e0       	ldi	r29, 0x00	; 0
     ab6:	65 ee       	ldi	r22, 0xE5	; 229
     ab8:	80 e4       	ldi	r24, 0x40	; 64
     aba:	0e 94 28 05 	call	0xa50	; 0xa50 <i2c_doSensor7021_rd>
     abe:	cc 0f       	add	r28, r28
     ac0:	dd 1f       	adc	r29, r29
     ac2:	cc 56       	subi	r28, 0x6C	; 108
     ac4:	dc 4f       	sbci	r29, 0xFC	; 252
     ac6:	99 83       	std	Y+1, r25	; 0x01
     ac8:	88 83       	st	Y, r24
	counter++;
     aca:	80 91 b4 02 	lds	r24, 0x02B4	; 0x8002b4 <counter.2144>
     ace:	8f 5f       	subi	r24, 0xFF	; 255
     ad0:	80 93 b4 02 	sts	0x02B4, r24	; 0x8002b4 <counter.2144>
}
     ad4:	df 91       	pop	r29
     ad6:	cf 91       	pop	r28
     ad8:	08 95       	ret

00000ada <I2c_GetTemp>:

void I2c_GetTemp(void)
{
     ada:	cf 93       	push	r28
     adc:	df 93       	push	r29
	static uint8_t counter = 0;
	if (counter == Mittelwerte) counter = 0;
     ade:	80 91 b3 02 	lds	r24, 0x02B3	; 0x8002b3 <counter.2148>
     ae2:	8a 30       	cpi	r24, 0x0A	; 10
     ae4:	11 f4       	brne	.+4      	; 0xaea <I2c_GetTemp+0x10>
     ae6:	10 92 b3 02 	sts	0x02B3, r1	; 0x8002b3 <counter.2148>
	TWI.TEMP_Val[counter] = i2c_doSensor7021_rd(SensorAdr_Si7021, i2C_Temp);
     aea:	c0 91 b3 02 	lds	r28, 0x02B3	; 0x8002b3 <counter.2148>
     aee:	d0 e0       	ldi	r29, 0x00	; 0
     af0:	63 ee       	ldi	r22, 0xE3	; 227
     af2:	80 e4       	ldi	r24, 0x40	; 64
     af4:	0e 94 28 05 	call	0xa50	; 0xa50 <i2c_doSensor7021_rd>
     af8:	2a 96       	adiw	r28, 0x0a	; 10
     afa:	cc 0f       	add	r28, r28
     afc:	dd 1f       	adc	r29, r29
     afe:	cc 56       	subi	r28, 0x6C	; 108
     b00:	dc 4f       	sbci	r29, 0xFC	; 252
     b02:	99 83       	std	Y+1, r25	; 0x01
     b04:	88 83       	st	Y, r24
	counter++;
     b06:	80 91 b3 02 	lds	r24, 0x02B3	; 0x8002b3 <counter.2148>
     b0a:	8f 5f       	subi	r24, 0xFF	; 255
     b0c:	80 93 b3 02 	sts	0x02B3, r24	; 0x8002b3 <counter.2148>
}
     b10:	df 91       	pop	r29
     b12:	cf 91       	pop	r28
     b14:	08 95       	ret

00000b16 <I2C_GetLuminance>:

void I2C_GetLuminance(void)
{	
     b16:	cf 93       	push	r28
     b18:	df 93       	push	r29
	static uint8_t counter = 0;
	if (counter == Mittelwerte) counter = 0;
     b1a:	80 91 b2 02 	lds	r24, 0x02B2	; 0x8002b2 <counter.2152>
     b1e:	8a 30       	cpi	r24, 0x0A	; 10
     b20:	11 f4       	brne	.+4      	; 0xb26 <I2C_GetLuminance+0x10>
     b22:	10 92 b2 02 	sts	0x02B2, r1	; 0x8002b2 <counter.2152>
	TWI.LUMI_Val[counter] = i2c_doSensor_rd(i2C_Adr_Lo);
     b26:	c0 91 b2 02 	lds	r28, 0x02B2	; 0x8002b2 <counter.2152>
     b2a:	d0 e0       	ldi	r29, 0x00	; 0
     b2c:	83 e2       	ldi	r24, 0x23	; 35
     b2e:	0e 94 0a 05 	call	0xa14	; 0xa14 <i2c_doSensor_rd>
     b32:	64 96       	adiw	r28, 0x14	; 20
     b34:	cc 0f       	add	r28, r28
     b36:	dd 1f       	adc	r29, r29
     b38:	cc 56       	subi	r28, 0x6C	; 108
     b3a:	dc 4f       	sbci	r29, 0xFC	; 252
     b3c:	99 83       	std	Y+1, r25	; 0x01
     b3e:	88 83       	st	Y, r24
	counter++;
     b40:	80 91 b2 02 	lds	r24, 0x02B2	; 0x8002b2 <counter.2152>
     b44:	8f 5f       	subi	r24, 0xFF	; 255
     b46:	80 93 b2 02 	sts	0x02B2, r24	; 0x8002b2 <counter.2152>
}
     b4a:	df 91       	pop	r29
     b4c:	cf 91       	pop	r28
     b4e:	08 95       	ret

00000b50 <Calculate_TWI>:

void Calculate_TWI(TWI_Settings *TWI)
{
     b50:	3f 92       	push	r3
     b52:	4f 92       	push	r4
     b54:	5f 92       	push	r5
     b56:	6f 92       	push	r6
     b58:	7f 92       	push	r7
     b5a:	8f 92       	push	r8
     b5c:	9f 92       	push	r9
     b5e:	af 92       	push	r10
     b60:	bf 92       	push	r11
     b62:	cf 92       	push	r12
     b64:	df 92       	push	r13
     b66:	ef 92       	push	r14
     b68:	ff 92       	push	r15
     b6a:	0f 93       	push	r16
     b6c:	1f 93       	push	r17
     b6e:	cf 93       	push	r28
     b70:	df 93       	push	r29
     b72:	ec 01       	movw	r28, r24
	uint64_t TWI_Sum = 0;
	
	for (uint8_t i = 0; i <= (Mittelwerte-1); i++)
     b74:	a0 e0       	ldi	r26, 0x00	; 0
	counter++;
}

void Calculate_TWI(TWI_Settings *TWI)
{
	uint64_t TWI_Sum = 0;
     b76:	51 2c       	mov	r5, r1
     b78:	61 2c       	mov	r6, r1
     b7a:	71 2c       	mov	r7, r1
     b7c:	81 2c       	mov	r8, r1
     b7e:	91 2c       	mov	r9, r1
     b80:	b0 e0       	ldi	r27, 0x00	; 0
     b82:	31 2c       	mov	r3, r1
     b84:	41 2c       	mov	r4, r1
	
	for (uint8_t i = 0; i <= (Mittelwerte-1); i++)
     b86:	23 c0       	rjmp	.+70     	; 0xbce <Calculate_TWI+0x7e>
	{
		TWI_Sum += TWI->HUMI_Val[i];
     b88:	ea 2f       	mov	r30, r26
     b8a:	f0 e0       	ldi	r31, 0x00	; 0
     b8c:	ee 0f       	add	r30, r30
     b8e:	ff 1f       	adc	r31, r31
     b90:	ec 0f       	add	r30, r28
     b92:	fd 1f       	adc	r31, r29
     b94:	a0 80       	ld	r10, Z
     b96:	b1 80       	ldd	r11, Z+1	; 0x01
     b98:	2a 2d       	mov	r18, r10
     b9a:	3b 2d       	mov	r19, r11
     b9c:	40 e0       	ldi	r20, 0x00	; 0
     b9e:	50 e0       	ldi	r21, 0x00	; 0
     ba0:	60 e0       	ldi	r22, 0x00	; 0
     ba2:	70 e0       	ldi	r23, 0x00	; 0
     ba4:	80 e0       	ldi	r24, 0x00	; 0
     ba6:	90 e0       	ldi	r25, 0x00	; 0
     ba8:	a5 2c       	mov	r10, r5
     baa:	b6 2c       	mov	r11, r6
     bac:	c7 2c       	mov	r12, r7
     bae:	d8 2c       	mov	r13, r8
     bb0:	e9 2c       	mov	r14, r9
     bb2:	fb 2e       	mov	r15, r27
     bb4:	03 2d       	mov	r16, r3
     bb6:	14 2d       	mov	r17, r4
     bb8:	0e 94 7c 0f 	call	0x1ef8	; 0x1ef8 <__adddi3>
     bbc:	52 2e       	mov	r5, r18
     bbe:	63 2e       	mov	r6, r19
     bc0:	74 2e       	mov	r7, r20
     bc2:	85 2e       	mov	r8, r21
     bc4:	96 2e       	mov	r9, r22
     bc6:	b7 2f       	mov	r27, r23
     bc8:	38 2e       	mov	r3, r24
     bca:	49 2e       	mov	r4, r25

void Calculate_TWI(TWI_Settings *TWI)
{
	uint64_t TWI_Sum = 0;
	
	for (uint8_t i = 0; i <= (Mittelwerte-1); i++)
     bcc:	af 5f       	subi	r26, 0xFF	; 255
     bce:	aa 30       	cpi	r26, 0x0A	; 10
     bd0:	d8 f2       	brcs	.-74     	; 0xb88 <Calculate_TWI+0x38>
	{
		TWI_Sum += TWI->HUMI_Val[i];
	}
	TWI->HUMI_Average = TWI_Sum / Mittelwerte;
     bd2:	0f 2e       	mov	r0, r31
     bd4:	fa e0       	ldi	r31, 0x0A	; 10
     bd6:	af 2e       	mov	r10, r31
     bd8:	f0 2d       	mov	r31, r0
     bda:	b1 2c       	mov	r11, r1
     bdc:	c1 2c       	mov	r12, r1
     bde:	d1 2c       	mov	r13, r1
     be0:	e1 2c       	mov	r14, r1
     be2:	f1 2c       	mov	r15, r1
     be4:	00 e0       	ldi	r16, 0x00	; 0
     be6:	10 e0       	ldi	r17, 0x00	; 0
     be8:	25 2d       	mov	r18, r5
     bea:	36 2d       	mov	r19, r6
     bec:	47 2d       	mov	r20, r7
     bee:	58 2d       	mov	r21, r8
     bf0:	69 2d       	mov	r22, r9
     bf2:	7b 2f       	mov	r23, r27
     bf4:	83 2d       	mov	r24, r3
     bf6:	94 2d       	mov	r25, r4
     bf8:	0e 94 e8 0e 	call	0x1dd0	; 0x1dd0 <__udivdi3>
     bfc:	0e 94 6d 0a 	call	0x14da	; 0x14da <__floatundisf>
     c00:	6c af       	std	Y+60, r22	; 0x3c
     c02:	7d af       	std	Y+61, r23	; 0x3d
     c04:	8e af       	std	Y+62, r24	; 0x3e
     c06:	9f af       	std	Y+63, r25	; 0x3f
	TWI->HUMI_Average = ( (125 * TWI->HUMI_Average) / 65536) - 6;
     c08:	20 e0       	ldi	r18, 0x00	; 0
     c0a:	30 e0       	ldi	r19, 0x00	; 0
     c0c:	4a ef       	ldi	r20, 0xFA	; 250
     c0e:	52 e4       	ldi	r21, 0x42	; 66
     c10:	0e 94 fc 0a 	call	0x15f8	; 0x15f8 <__mulsf3>
     c14:	20 e0       	ldi	r18, 0x00	; 0
     c16:	30 e0       	ldi	r19, 0x00	; 0
     c18:	40 e8       	ldi	r20, 0x80	; 128
     c1a:	57 e3       	ldi	r21, 0x37	; 55
     c1c:	0e 94 fc 0a 	call	0x15f8	; 0x15f8 <__mulsf3>
     c20:	20 e0       	ldi	r18, 0x00	; 0
     c22:	30 e0       	ldi	r19, 0x00	; 0
     c24:	40 ec       	ldi	r20, 0xC0	; 192
     c26:	50 e4       	ldi	r21, 0x40	; 64
     c28:	0e 94 00 0a 	call	0x1400	; 0x1400 <__subsf3>
     c2c:	6c af       	std	Y+60, r22	; 0x3c
     c2e:	7d af       	std	Y+61, r23	; 0x3d
     c30:	8e af       	std	Y+62, r24	; 0x3e
     c32:	9f af       	std	Y+63, r25	; 0x3f
	TWI_Sum = 0;
	
	for (uint8_t i = 0; i <= (Mittelwerte-1); i++)
     c34:	a0 e0       	ldi	r26, 0x00	; 0
	{
		TWI_Sum += TWI->HUMI_Val[i];
	}
	TWI->HUMI_Average = TWI_Sum / Mittelwerte;
	TWI->HUMI_Average = ( (125 * TWI->HUMI_Average) / 65536) - 6;
	TWI_Sum = 0;
     c36:	51 2c       	mov	r5, r1
     c38:	61 2c       	mov	r6, r1
     c3a:	71 2c       	mov	r7, r1
     c3c:	81 2c       	mov	r8, r1
     c3e:	91 2c       	mov	r9, r1
     c40:	b0 e0       	ldi	r27, 0x00	; 0
     c42:	31 2c       	mov	r3, r1
     c44:	41 2c       	mov	r4, r1
	
	for (uint8_t i = 0; i <= (Mittelwerte-1); i++)
     c46:	24 c0       	rjmp	.+72     	; 0xc90 <Calculate_TWI+0x140>
	{
		TWI_Sum += TWI->TEMP_Val[i];
     c48:	ea 2f       	mov	r30, r26
     c4a:	f0 e0       	ldi	r31, 0x00	; 0
     c4c:	3a 96       	adiw	r30, 0x0a	; 10
     c4e:	ee 0f       	add	r30, r30
     c50:	ff 1f       	adc	r31, r31
     c52:	ec 0f       	add	r30, r28
     c54:	fd 1f       	adc	r31, r29
     c56:	a0 80       	ld	r10, Z
     c58:	b1 80       	ldd	r11, Z+1	; 0x01
     c5a:	2a 2d       	mov	r18, r10
     c5c:	3b 2d       	mov	r19, r11
     c5e:	40 e0       	ldi	r20, 0x00	; 0
     c60:	50 e0       	ldi	r21, 0x00	; 0
     c62:	60 e0       	ldi	r22, 0x00	; 0
     c64:	70 e0       	ldi	r23, 0x00	; 0
     c66:	80 e0       	ldi	r24, 0x00	; 0
     c68:	90 e0       	ldi	r25, 0x00	; 0
     c6a:	a5 2c       	mov	r10, r5
     c6c:	b6 2c       	mov	r11, r6
     c6e:	c7 2c       	mov	r12, r7
     c70:	d8 2c       	mov	r13, r8
     c72:	e9 2c       	mov	r14, r9
     c74:	fb 2e       	mov	r15, r27
     c76:	03 2d       	mov	r16, r3
     c78:	14 2d       	mov	r17, r4
     c7a:	0e 94 7c 0f 	call	0x1ef8	; 0x1ef8 <__adddi3>
     c7e:	52 2e       	mov	r5, r18
     c80:	63 2e       	mov	r6, r19
     c82:	74 2e       	mov	r7, r20
     c84:	85 2e       	mov	r8, r21
     c86:	96 2e       	mov	r9, r22
     c88:	b7 2f       	mov	r27, r23
     c8a:	38 2e       	mov	r3, r24
     c8c:	49 2e       	mov	r4, r25
	}
	TWI->HUMI_Average = TWI_Sum / Mittelwerte;
	TWI->HUMI_Average = ( (125 * TWI->HUMI_Average) / 65536) - 6;
	TWI_Sum = 0;
	
	for (uint8_t i = 0; i <= (Mittelwerte-1); i++)
     c8e:	af 5f       	subi	r26, 0xFF	; 255
     c90:	aa 30       	cpi	r26, 0x0A	; 10
     c92:	d0 f2       	brcs	.-76     	; 0xc48 <Calculate_TWI+0xf8>
	{
		TWI_Sum += TWI->TEMP_Val[i];
	}
	TWI->TEMP_Average = TWI_Sum / Mittelwerte;
     c94:	0f 2e       	mov	r0, r31
     c96:	fa e0       	ldi	r31, 0x0A	; 10
     c98:	af 2e       	mov	r10, r31
     c9a:	f0 2d       	mov	r31, r0
     c9c:	b1 2c       	mov	r11, r1
     c9e:	c1 2c       	mov	r12, r1
     ca0:	d1 2c       	mov	r13, r1
     ca2:	e1 2c       	mov	r14, r1
     ca4:	f1 2c       	mov	r15, r1
     ca6:	00 e0       	ldi	r16, 0x00	; 0
     ca8:	10 e0       	ldi	r17, 0x00	; 0
     caa:	25 2d       	mov	r18, r5
     cac:	36 2d       	mov	r19, r6
     cae:	47 2d       	mov	r20, r7
     cb0:	58 2d       	mov	r21, r8
     cb2:	69 2d       	mov	r22, r9
     cb4:	7b 2f       	mov	r23, r27
     cb6:	83 2d       	mov	r24, r3
     cb8:	94 2d       	mov	r25, r4
     cba:	0e 94 e8 0e 	call	0x1dd0	; 0x1dd0 <__udivdi3>
     cbe:	0e 94 6d 0a 	call	0x14da	; 0x14da <__floatundisf>
     cc2:	8e 01       	movw	r16, r28
     cc4:	00 5c       	subi	r16, 0xC0	; 192
     cc6:	1f 4f       	sbci	r17, 0xFF	; 255
     cc8:	f8 01       	movw	r30, r16
     cca:	60 83       	st	Z, r22
     ccc:	71 83       	std	Z+1, r23	; 0x01
     cce:	82 83       	std	Z+2, r24	; 0x02
     cd0:	93 83       	std	Z+3, r25	; 0x03
	TWI->TEMP_Average = ((175.72 * TWI->TEMP_Average) / 65536) -46.85;
     cd2:	22 e5       	ldi	r18, 0x52	; 82
     cd4:	38 eb       	ldi	r19, 0xB8	; 184
     cd6:	4f e2       	ldi	r20, 0x2F	; 47
     cd8:	53 e4       	ldi	r21, 0x43	; 67
     cda:	0e 94 fc 0a 	call	0x15f8	; 0x15f8 <__mulsf3>
     cde:	20 e0       	ldi	r18, 0x00	; 0
     ce0:	30 e0       	ldi	r19, 0x00	; 0
     ce2:	40 e8       	ldi	r20, 0x80	; 128
     ce4:	57 e3       	ldi	r21, 0x37	; 55
     ce6:	0e 94 fc 0a 	call	0x15f8	; 0x15f8 <__mulsf3>
     cea:	26 e6       	ldi	r18, 0x66	; 102
     cec:	36 e6       	ldi	r19, 0x66	; 102
     cee:	4b e3       	ldi	r20, 0x3B	; 59
     cf0:	52 e4       	ldi	r21, 0x42	; 66
     cf2:	0e 94 00 0a 	call	0x1400	; 0x1400 <__subsf3>
     cf6:	f8 01       	movw	r30, r16
     cf8:	60 83       	st	Z, r22
     cfa:	71 83       	std	Z+1, r23	; 0x01
     cfc:	82 83       	std	Z+2, r24	; 0x02
     cfe:	93 83       	std	Z+3, r25	; 0x03
	TWI_Sum = 0;
	
	for (uint8_t i = 0; i <= (Mittelwerte-1); i++)
     d00:	a0 e0       	ldi	r26, 0x00	; 0
	{
		TWI_Sum += TWI->TEMP_Val[i];
	}
	TWI->TEMP_Average = TWI_Sum / Mittelwerte;
	TWI->TEMP_Average = ((175.72 * TWI->TEMP_Average) / 65536) -46.85;
	TWI_Sum = 0;
     d02:	51 2c       	mov	r5, r1
     d04:	61 2c       	mov	r6, r1
     d06:	71 2c       	mov	r7, r1
     d08:	81 2c       	mov	r8, r1
     d0a:	91 2c       	mov	r9, r1
     d0c:	b0 e0       	ldi	r27, 0x00	; 0
     d0e:	31 2c       	mov	r3, r1
     d10:	41 2c       	mov	r4, r1
	
	for (uint8_t i = 0; i <= (Mittelwerte-1); i++)
     d12:	24 c0       	rjmp	.+72     	; 0xd5c <Calculate_TWI+0x20c>
	{
		TWI_Sum += TWI->LUMI_Val[i];
     d14:	ea 2f       	mov	r30, r26
     d16:	f0 e0       	ldi	r31, 0x00	; 0
     d18:	74 96       	adiw	r30, 0x14	; 20
     d1a:	ee 0f       	add	r30, r30
     d1c:	ff 1f       	adc	r31, r31
     d1e:	ec 0f       	add	r30, r28
     d20:	fd 1f       	adc	r31, r29
     d22:	a0 80       	ld	r10, Z
     d24:	b1 80       	ldd	r11, Z+1	; 0x01
     d26:	2a 2d       	mov	r18, r10
     d28:	3b 2d       	mov	r19, r11
     d2a:	40 e0       	ldi	r20, 0x00	; 0
     d2c:	50 e0       	ldi	r21, 0x00	; 0
     d2e:	60 e0       	ldi	r22, 0x00	; 0
     d30:	70 e0       	ldi	r23, 0x00	; 0
     d32:	80 e0       	ldi	r24, 0x00	; 0
     d34:	90 e0       	ldi	r25, 0x00	; 0
     d36:	a5 2c       	mov	r10, r5
     d38:	b6 2c       	mov	r11, r6
     d3a:	c7 2c       	mov	r12, r7
     d3c:	d8 2c       	mov	r13, r8
     d3e:	e9 2c       	mov	r14, r9
     d40:	fb 2e       	mov	r15, r27
     d42:	03 2d       	mov	r16, r3
     d44:	14 2d       	mov	r17, r4
     d46:	0e 94 7c 0f 	call	0x1ef8	; 0x1ef8 <__adddi3>
     d4a:	52 2e       	mov	r5, r18
     d4c:	63 2e       	mov	r6, r19
     d4e:	74 2e       	mov	r7, r20
     d50:	85 2e       	mov	r8, r21
     d52:	96 2e       	mov	r9, r22
     d54:	b7 2f       	mov	r27, r23
     d56:	38 2e       	mov	r3, r24
     d58:	49 2e       	mov	r4, r25
	}
	TWI->TEMP_Average = TWI_Sum / Mittelwerte;
	TWI->TEMP_Average = ((175.72 * TWI->TEMP_Average) / 65536) -46.85;
	TWI_Sum = 0;
	
	for (uint8_t i = 0; i <= (Mittelwerte-1); i++)
     d5a:	af 5f       	subi	r26, 0xFF	; 255
     d5c:	aa 30       	cpi	r26, 0x0A	; 10
     d5e:	d0 f2       	brcs	.-76     	; 0xd14 <Calculate_TWI+0x1c4>
	{
		TWI_Sum += TWI->LUMI_Val[i];
	}
	TWI->LUMI_Average = TWI_Sum / Mittelwerte;
     d60:	0f 2e       	mov	r0, r31
     d62:	fa e0       	ldi	r31, 0x0A	; 10
     d64:	af 2e       	mov	r10, r31
     d66:	f0 2d       	mov	r31, r0
     d68:	b1 2c       	mov	r11, r1
     d6a:	c1 2c       	mov	r12, r1
     d6c:	d1 2c       	mov	r13, r1
     d6e:	e1 2c       	mov	r14, r1
     d70:	f1 2c       	mov	r15, r1
     d72:	00 e0       	ldi	r16, 0x00	; 0
     d74:	10 e0       	ldi	r17, 0x00	; 0
     d76:	25 2d       	mov	r18, r5
     d78:	36 2d       	mov	r19, r6
     d7a:	47 2d       	mov	r20, r7
     d7c:	58 2d       	mov	r21, r8
     d7e:	69 2d       	mov	r22, r9
     d80:	7b 2f       	mov	r23, r27
     d82:	83 2d       	mov	r24, r3
     d84:	94 2d       	mov	r25, r4
     d86:	0e 94 e8 0e 	call	0x1dd0	; 0x1dd0 <__udivdi3>
     d8a:	cc 5b       	subi	r28, 0xBC	; 188
     d8c:	df 4f       	sbci	r29, 0xFF	; 255
     d8e:	0e 94 6d 0a 	call	0x14da	; 0x14da <__floatundisf>
     d92:	68 83       	st	Y, r22
     d94:	79 83       	std	Y+1, r23	; 0x01
     d96:	8a 83       	std	Y+2, r24	; 0x02
     d98:	9b 83       	std	Y+3, r25	; 0x03
     d9a:	df 91       	pop	r29
     d9c:	cf 91       	pop	r28
     d9e:	1f 91       	pop	r17
     da0:	0f 91       	pop	r16
     da2:	ff 90       	pop	r15
     da4:	ef 90       	pop	r14
     da6:	df 90       	pop	r13
     da8:	cf 90       	pop	r12
     daa:	bf 90       	pop	r11
     dac:	af 90       	pop	r10
     dae:	9f 90       	pop	r9
     db0:	8f 90       	pop	r8
     db2:	7f 90       	pop	r7
     db4:	6f 90       	pop	r6
     db6:	5f 90       	pop	r5
     db8:	4f 90       	pop	r4
     dba:	3f 90       	pop	r3
     dbc:	08 95       	ret

00000dbe <UART_TX>:
	
	sei();
}

static int UART_TX(char c, FILE *stream)
{
     dbe:	cf 93       	push	r28
     dc0:	c8 2f       	mov	r28, r24
	UCSR0B &= ~(1<<RXCIE0);
     dc2:	8a b1       	in	r24, 0x0a	; 10
     dc4:	8f 77       	andi	r24, 0x7F	; 127
     dc6:	8a b9       	out	0x0a, r24	; 10
	UCSR0B &= ~(1<<RXEN0);
     dc8:	8a b1       	in	r24, 0x0a	; 10
     dca:	8f 7e       	andi	r24, 0xEF	; 239
     dcc:	8a b9       	out	0x0a, r24	; 10

	if (c == '\n') UART_TX('\r', stream);
     dce:	ca 30       	cpi	r28, 0x0A	; 10
     dd0:	19 f4       	brne	.+6      	; 0xdd8 <UART_TX+0x1a>
     dd2:	8d e0       	ldi	r24, 0x0D	; 13
     dd4:	0e 94 df 06 	call	0xdbe	; 0xdbe <UART_TX>
	
	_DIR(ON)
     dd8:	83 b1       	in	r24, 0x03	; 3
     dda:	84 60       	ori	r24, 0x04	; 4
     ddc:	83 b9       	out	0x03, r24	; 3
	
	while (!(UCSR0A & (1<<UDRE0)));
     dde:	5d 9b       	sbis	0x0b, 5	; 11
     de0:	fe cf       	rjmp	.-4      	; 0xdde <UART_TX+0x20>
	
	UDR0 = c;
     de2:	cc b9       	out	0x0c, r28	; 12
	#else
		//round up by default
		__ticks_dc = (uint32_t)(ceil(fabs(__tmp)));
	#endif

	__builtin_avr_delay_cycles(__ticks_dc);
     de4:	8f ea       	ldi	r24, 0xAF	; 175
     de6:	94 e0       	ldi	r25, 0x04	; 4
     de8:	01 97       	sbiw	r24, 0x01	; 1
     dea:	f1 f7       	brne	.-4      	; 0xde8 <UART_TX+0x2a>
     dec:	00 c0       	rjmp	.+0      	; 0xdee <UART_TX+0x30>
     dee:	00 00       	nop
	
	_delay_us(300);
	
	_DIR(OFF)
     df0:	83 b1       	in	r24, 0x03	; 3
     df2:	8b 7f       	andi	r24, 0xFB	; 251
     df4:	83 b9       	out	0x03, r24	; 3

	UCSR0B |= (1<<RXCIE0);
     df6:	8a b1       	in	r24, 0x0a	; 10
     df8:	80 68       	ori	r24, 0x80	; 128
     dfa:	8a b9       	out	0x0a, r24	; 10
	UCSR0B |= (1<<RXEN0);
     dfc:	8a b1       	in	r24, 0x0a	; 10
     dfe:	80 61       	ori	r24, 0x10	; 16
     e00:	8a b9       	out	0x0a, r24	; 10
	

	return 0;
} 
     e02:	80 e0       	ldi	r24, 0x00	; 0
     e04:	90 e0       	ldi	r25, 0x00	; 0
     e06:	cf 91       	pop	r28
     e08:	08 95       	ret

00000e0a <UART_Init>:

void UART_Init(UART *UART)
{

	//RXD-PIN als Eingang
	DDRD &= ~(1<<0);
     e0a:	21 b3       	in	r18, 0x11	; 17
     e0c:	2e 7f       	andi	r18, 0xFE	; 254
     e0e:	21 bb       	out	0x11, r18	; 17

	//USART Baud rate: 9600
	UBRR0H = (MYUBRR >> 8);
     e10:	10 92 90 00 	sts	0x0090, r1	; 0x800090 <__TEXT_REGION_LENGTH__+0x7f0090>
	UBRR0L = MYUBRR;
     e14:	29 e1       	ldi	r18, 0x19	; 25
     e16:	29 b9       	out	0x09, r18	; 9
	UCSR0C = (1 << UCSZ01) | (1 << UCSZ00);
     e18:	26 e0       	ldi	r18, 0x06	; 6
     e1a:	20 93 95 00 	sts	0x0095, r18	; 0x800095 <__TEXT_REGION_LENGTH__+0x7f0095>
	UCSR0B = (1 << TXEN0) | ( 1<<RXEN0) | (1<<RXCIE0);
     e1e:	28 e9       	ldi	r18, 0x98	; 152
     e20:	2a b9       	out	0x0a, r18	; 10
	
	//Wichtig fr printf
	stdout = &mystdout;
     e22:	26 e0       	ldi	r18, 0x06	; 6
     e24:	31 e0       	ldi	r19, 0x01	; 1
     e26:	30 93 f3 03 	sts	0x03F3, r19	; 0x8003f3 <__iob+0x3>
     e2a:	20 93 f2 03 	sts	0x03F2, r18	; 0x8003f2 <__iob+0x2>
	
	UART->RX_Complete = 0;
     e2e:	80 58       	subi	r24, 0x80	; 128
     e30:	9f 4f       	sbci	r25, 0xFF	; 255
     e32:	fc 01       	movw	r30, r24
     e34:	10 82       	st	Z, r1
	
	sei();
     e36:	78 94       	sei
     e38:	08 95       	ret

00000e3a <__vector_18>:
} 



ISR(USART0_RX_vect)
{
     e3a:	1f 92       	push	r1
     e3c:	0f 92       	push	r0
     e3e:	0f b6       	in	r0, 0x3f	; 63
     e40:	0f 92       	push	r0
     e42:	11 24       	eor	r1, r1
     e44:	8f 93       	push	r24
     e46:	9f 93       	push	r25
     e48:	ef 93       	push	r30
     e4a:	ff 93       	push	r31
	static uint8_t RX_Counter = 0;
	
	char local_RX = UDR0;
     e4c:	9c b1       	in	r25, 0x0c	; 12
	
	if (!UART0.RX_Complete)
     e4e:	80 91 62 03 	lds	r24, 0x0362	; 0x800362 <UART0+0x80>
     e52:	81 11       	cpse	r24, r1
     e54:	19 c0       	rjmp	.+50     	; 0xe88 <__vector_18+0x4e>
	{	
		
		if (local_RX == '{') RX_Counter = 0;
     e56:	9b 37       	cpi	r25, 0x7B	; 123
     e58:	11 f4       	brne	.+4      	; 0xe5e <__vector_18+0x24>
     e5a:	10 92 b5 02 	sts	0x02B5, r1	; 0x8002b5 <RX_Counter.2108>
			
		if (local_RX == '}')
     e5e:	9d 37       	cpi	r25, 0x7D	; 125
     e60:	39 f4       	brne	.+14     	; 0xe70 <__vector_18+0x36>
		{
			UART0.RX_Complete = 1;
     e62:	81 e0       	ldi	r24, 0x01	; 1
     e64:	80 93 62 03 	sts	0x0362, r24	; 0x800362 <UART0+0x80>
			UART0.RX_Global_Counter = RX_Counter;
     e68:	80 91 b5 02 	lds	r24, 0x02B5	; 0x8002b5 <RX_Counter.2108>
     e6c:	80 93 63 03 	sts	0x0363, r24	; 0x800363 <UART0+0x81>
		}
		
		if (RX_Counter <= (RX_Buffer_size - 1))
     e70:	80 91 b5 02 	lds	r24, 0x02B5	; 0x8002b5 <RX_Counter.2108>
     e74:	88 23       	and	r24, r24
     e76:	44 f0       	brlt	.+16     	; 0xe88 <__vector_18+0x4e>
		{
			UART0.RX_Buf[RX_Counter] = local_RX;
     e78:	e8 2f       	mov	r30, r24
     e7a:	f0 e0       	ldi	r31, 0x00	; 0
     e7c:	ee 51       	subi	r30, 0x1E	; 30
     e7e:	fd 4f       	sbci	r31, 0xFD	; 253
     e80:	90 83       	st	Z, r25
			RX_Counter++;
     e82:	8f 5f       	subi	r24, 0xFF	; 255
     e84:	80 93 b5 02 	sts	0x02B5, r24	; 0x8002b5 <RX_Counter.2108>
		}
	}
}
     e88:	ff 91       	pop	r31
     e8a:	ef 91       	pop	r30
     e8c:	9f 91       	pop	r25
     e8e:	8f 91       	pop	r24
     e90:	0f 90       	pop	r0
     e92:	0f be       	out	0x3f, r0	; 63
     e94:	0f 90       	pop	r0
     e96:	1f 90       	pop	r1
     e98:	18 95       	reti

00000e9a <UART_RX_Handler>:
#include "UART_Routine.h"
#include "IO.h"
#include "Sub.h"

void UART_RX_Handler(UART *UART0)
{
     e9a:	cf 93       	push	r28
     e9c:	df 93       	push	r29
	if (UART0->RX_Complete)
     e9e:	fc 01       	movw	r30, r24
     ea0:	e0 58       	subi	r30, 0x80	; 128
     ea2:	ff 4f       	sbci	r31, 0xFF	; 255
     ea4:	20 81       	ld	r18, Z
     ea6:	22 23       	and	r18, r18
     ea8:	09 f4       	brne	.+2      	; 0xeac <UART_RX_Handler+0x12>
     eaa:	bb c0       	rjmp	.+374    	; 0x1022 <__DATA_REGION_LENGTH__+0x22>
     eac:	ec 01       	movw	r28, r24
	{
		if (strncmp(UART0->RX_Buf, "{TASK1}", UART0->RX_Global_Counter) == 0) UART0->RX_Task[TASK1] = 1;
     eae:	31 96       	adiw	r30, 0x01	; 1
     eb0:	40 81       	ld	r20, Z
     eb2:	50 e0       	ldi	r21, 0x00	; 0
     eb4:	68 e9       	ldi	r22, 0x98	; 152
     eb6:	71 e0       	ldi	r23, 0x01	; 1
     eb8:	0e 94 a7 11 	call	0x234e	; 0x234e <strncmp>
     ebc:	89 2b       	or	r24, r25
     ebe:	29 f4       	brne	.+10     	; 0xeca <UART_RX_Handler+0x30>
     ec0:	81 e0       	ldi	r24, 0x01	; 1
     ec2:	fe 01       	movw	r30, r28
     ec4:	ed 57       	subi	r30, 0x7D	; 125
     ec6:	ff 4f       	sbci	r31, 0xFF	; 255
     ec8:	80 83       	st	Z, r24
		if (strncmp(UART0->RX_Buf, "{TASK2}", UART0->RX_Global_Counter) == 0) UART0->RX_Task[TASK2] = 1;
     eca:	fe 01       	movw	r30, r28
     ecc:	ef 57       	subi	r30, 0x7F	; 127
     ece:	ff 4f       	sbci	r31, 0xFF	; 255
     ed0:	40 81       	ld	r20, Z
     ed2:	50 e0       	ldi	r21, 0x00	; 0
     ed4:	60 ea       	ldi	r22, 0xA0	; 160
     ed6:	71 e0       	ldi	r23, 0x01	; 1
     ed8:	ce 01       	movw	r24, r28
     eda:	0e 94 a7 11 	call	0x234e	; 0x234e <strncmp>
     ede:	89 2b       	or	r24, r25
     ee0:	29 f4       	brne	.+10     	; 0xeec <UART_RX_Handler+0x52>
     ee2:	81 e0       	ldi	r24, 0x01	; 1
     ee4:	fe 01       	movw	r30, r28
     ee6:	ec 57       	subi	r30, 0x7C	; 124
     ee8:	ff 4f       	sbci	r31, 0xFF	; 255
     eea:	80 83       	st	Z, r24
			
		if (strncmp(UART0->RX_Buf, "{SET TEMP_L TO:}", UART0->RX_Global_Counter - 4) == 0) UART0->RX_Task[SET_TEMP_L] = 1;
     eec:	fe 01       	movw	r30, r28
     eee:	ef 57       	subi	r30, 0x7F	; 127
     ef0:	ff 4f       	sbci	r31, 0xFF	; 255
     ef2:	40 81       	ld	r20, Z
     ef4:	50 e0       	ldi	r21, 0x00	; 0
     ef6:	44 50       	subi	r20, 0x04	; 4
     ef8:	51 09       	sbc	r21, r1
     efa:	68 ea       	ldi	r22, 0xA8	; 168
     efc:	71 e0       	ldi	r23, 0x01	; 1
     efe:	ce 01       	movw	r24, r28
     f00:	0e 94 a7 11 	call	0x234e	; 0x234e <strncmp>
     f04:	89 2b       	or	r24, r25
     f06:	29 f4       	brne	.+10     	; 0xf12 <UART_RX_Handler+0x78>
     f08:	81 e0       	ldi	r24, 0x01	; 1
     f0a:	fe 01       	movw	r30, r28
     f0c:	eb 57       	subi	r30, 0x7B	; 123
     f0e:	ff 4f       	sbci	r31, 0xFF	; 255
     f10:	80 83       	st	Z, r24
		if (strncmp(UART0->RX_Buf, "{SET TEMP_H TO:}", UART0->RX_Global_Counter - 4) == 0) UART0->RX_Task[SET_TEMP_H] = 1;
     f12:	fe 01       	movw	r30, r28
     f14:	ef 57       	subi	r30, 0x7F	; 127
     f16:	ff 4f       	sbci	r31, 0xFF	; 255
     f18:	40 81       	ld	r20, Z
     f1a:	50 e0       	ldi	r21, 0x00	; 0
     f1c:	44 50       	subi	r20, 0x04	; 4
     f1e:	51 09       	sbc	r21, r1
     f20:	69 eb       	ldi	r22, 0xB9	; 185
     f22:	71 e0       	ldi	r23, 0x01	; 1
     f24:	ce 01       	movw	r24, r28
     f26:	0e 94 a7 11 	call	0x234e	; 0x234e <strncmp>
     f2a:	89 2b       	or	r24, r25
     f2c:	29 f4       	brne	.+10     	; 0xf38 <UART_RX_Handler+0x9e>
     f2e:	81 e0       	ldi	r24, 0x01	; 1
     f30:	fe 01       	movw	r30, r28
     f32:	ea 57       	subi	r30, 0x7A	; 122
     f34:	ff 4f       	sbci	r31, 0xFF	; 255
     f36:	80 83       	st	Z, r24
		
		if (strncmp(UART0->RX_Buf, "{SET LUMI_L TO:}", UART0->RX_Global_Counter - 5) == 0) UART0->RX_Task[SET_LUMI_L] = 1;
     f38:	fe 01       	movw	r30, r28
     f3a:	ef 57       	subi	r30, 0x7F	; 127
     f3c:	ff 4f       	sbci	r31, 0xFF	; 255
     f3e:	40 81       	ld	r20, Z
     f40:	50 e0       	ldi	r21, 0x00	; 0
     f42:	45 50       	subi	r20, 0x05	; 5
     f44:	51 09       	sbc	r21, r1
     f46:	6a ec       	ldi	r22, 0xCA	; 202
     f48:	71 e0       	ldi	r23, 0x01	; 1
     f4a:	ce 01       	movw	r24, r28
     f4c:	0e 94 a7 11 	call	0x234e	; 0x234e <strncmp>
     f50:	89 2b       	or	r24, r25
     f52:	29 f4       	brne	.+10     	; 0xf5e <UART_RX_Handler+0xc4>
     f54:	81 e0       	ldi	r24, 0x01	; 1
     f56:	fe 01       	movw	r30, r28
     f58:	e9 57       	subi	r30, 0x79	; 121
     f5a:	ff 4f       	sbci	r31, 0xFF	; 255
     f5c:	80 83       	st	Z, r24
		if (strncmp(UART0->RX_Buf, "{SET LUMI_H TO:}", UART0->RX_Global_Counter - 5) == 0) UART0->RX_Task[SET_LUMI_H] = 1;
     f5e:	fe 01       	movw	r30, r28
     f60:	ef 57       	subi	r30, 0x7F	; 127
     f62:	ff 4f       	sbci	r31, 0xFF	; 255
     f64:	40 81       	ld	r20, Z
     f66:	50 e0       	ldi	r21, 0x00	; 0
     f68:	45 50       	subi	r20, 0x05	; 5
     f6a:	51 09       	sbc	r21, r1
     f6c:	6b ed       	ldi	r22, 0xDB	; 219
     f6e:	71 e0       	ldi	r23, 0x01	; 1
     f70:	ce 01       	movw	r24, r28
     f72:	0e 94 a7 11 	call	0x234e	; 0x234e <strncmp>
     f76:	89 2b       	or	r24, r25
     f78:	29 f4       	brne	.+10     	; 0xf84 <UART_RX_Handler+0xea>
     f7a:	81 e0       	ldi	r24, 0x01	; 1
     f7c:	fe 01       	movw	r30, r28
     f7e:	e8 57       	subi	r30, 0x78	; 120
     f80:	ff 4f       	sbci	r31, 0xFF	; 255
     f82:	80 83       	st	Z, r24
			
		if (strncmp(UART0->RX_Buf, "{SET HUMI_L TO:}", UART0->RX_Global_Counter - 4) == 0) UART0->RX_Task[SET_HUMI_L] = 1;
     f84:	fe 01       	movw	r30, r28
     f86:	ef 57       	subi	r30, 0x7F	; 127
     f88:	ff 4f       	sbci	r31, 0xFF	; 255
     f8a:	40 81       	ld	r20, Z
     f8c:	50 e0       	ldi	r21, 0x00	; 0
     f8e:	44 50       	subi	r20, 0x04	; 4
     f90:	51 09       	sbc	r21, r1
     f92:	6c ee       	ldi	r22, 0xEC	; 236
     f94:	71 e0       	ldi	r23, 0x01	; 1
     f96:	ce 01       	movw	r24, r28
     f98:	0e 94 a7 11 	call	0x234e	; 0x234e <strncmp>
     f9c:	89 2b       	or	r24, r25
     f9e:	29 f4       	brne	.+10     	; 0xfaa <UART_RX_Handler+0x110>
     fa0:	81 e0       	ldi	r24, 0x01	; 1
     fa2:	fe 01       	movw	r30, r28
     fa4:	e7 57       	subi	r30, 0x77	; 119
     fa6:	ff 4f       	sbci	r31, 0xFF	; 255
     fa8:	80 83       	st	Z, r24
		if (strncmp(UART0->RX_Buf, "{SET HUMI_H TO:}", UART0->RX_Global_Counter - 4) == 0) UART0->RX_Task[SET_HUMI_H] = 1;
     faa:	fe 01       	movw	r30, r28
     fac:	ef 57       	subi	r30, 0x7F	; 127
     fae:	ff 4f       	sbci	r31, 0xFF	; 255
     fb0:	40 81       	ld	r20, Z
     fb2:	50 e0       	ldi	r21, 0x00	; 0
     fb4:	44 50       	subi	r20, 0x04	; 4
     fb6:	51 09       	sbc	r21, r1
     fb8:	6d ef       	ldi	r22, 0xFD	; 253
     fba:	71 e0       	ldi	r23, 0x01	; 1
     fbc:	ce 01       	movw	r24, r28
     fbe:	0e 94 a7 11 	call	0x234e	; 0x234e <strncmp>
     fc2:	89 2b       	or	r24, r25
     fc4:	29 f4       	brne	.+10     	; 0xfd0 <UART_RX_Handler+0x136>
     fc6:	81 e0       	ldi	r24, 0x01	; 1
     fc8:	fe 01       	movw	r30, r28
     fca:	e6 57       	subi	r30, 0x76	; 118
     fcc:	ff 4f       	sbci	r31, 0xFF	; 255
     fce:	80 83       	st	Z, r24

		if (strncmp(UART0->RX_Buf, "{SET GHUM_L TO:}", UART0->RX_Global_Counter - 4) == 0) UART0->RX_Task[SET_GHUM_L] = 1;
     fd0:	fe 01       	movw	r30, r28
     fd2:	ef 57       	subi	r30, 0x7F	; 127
     fd4:	ff 4f       	sbci	r31, 0xFF	; 255
     fd6:	40 81       	ld	r20, Z
     fd8:	50 e0       	ldi	r21, 0x00	; 0
     fda:	44 50       	subi	r20, 0x04	; 4
     fdc:	51 09       	sbc	r21, r1
     fde:	6e e0       	ldi	r22, 0x0E	; 14
     fe0:	72 e0       	ldi	r23, 0x02	; 2
     fe2:	ce 01       	movw	r24, r28
     fe4:	0e 94 a7 11 	call	0x234e	; 0x234e <strncmp>
     fe8:	89 2b       	or	r24, r25
     fea:	29 f4       	brne	.+10     	; 0xff6 <UART_RX_Handler+0x15c>
     fec:	81 e0       	ldi	r24, 0x01	; 1
     fee:	fe 01       	movw	r30, r28
     ff0:	e5 57       	subi	r30, 0x75	; 117
     ff2:	ff 4f       	sbci	r31, 0xFF	; 255
     ff4:	80 83       	st	Z, r24
		if (strncmp(UART0->RX_Buf, "{SET GHUM_H TO:}", UART0->RX_Global_Counter - 4) == 0) UART0->RX_Task[SET_GHUM_H] = 1;
     ff6:	fe 01       	movw	r30, r28
     ff8:	ef 57       	subi	r30, 0x7F	; 127
     ffa:	ff 4f       	sbci	r31, 0xFF	; 255
     ffc:	40 81       	ld	r20, Z
     ffe:	50 e0       	ldi	r21, 0x00	; 0
    1000:	44 50       	subi	r20, 0x04	; 4
    1002:	51 09       	sbc	r21, r1
    1004:	6f e1       	ldi	r22, 0x1F	; 31
    1006:	72 e0       	ldi	r23, 0x02	; 2
    1008:	ce 01       	movw	r24, r28
    100a:	0e 94 a7 11 	call	0x234e	; 0x234e <strncmp>
    100e:	89 2b       	or	r24, r25
    1010:	29 f4       	brne	.+10     	; 0x101c <__DATA_REGION_LENGTH__+0x1c>
    1012:	81 e0       	ldi	r24, 0x01	; 1
    1014:	fe 01       	movw	r30, r28
    1016:	e4 57       	subi	r30, 0x74	; 116
    1018:	ff 4f       	sbci	r31, 0xFF	; 255
    101a:	80 83       	st	Z, r24

		UART0->RX_Complete = 0;
    101c:	c0 58       	subi	r28, 0x80	; 128
    101e:	df 4f       	sbci	r29, 0xFF	; 255
    1020:	18 82       	st	Y, r1
	}
	
}
    1022:	df 91       	pop	r29
    1024:	cf 91       	pop	r28
    1026:	08 95       	ret

00001028 <RX_Taskhandler>:

void RX_Taskhandler(UART *UART0)
{
    1028:	ef 92       	push	r14
    102a:	ff 92       	push	r15
    102c:	0f 93       	push	r16
    102e:	1f 93       	push	r17
    1030:	cf 93       	push	r28
    1032:	df 93       	push	r29
    1034:	00 d0       	rcall	.+0      	; 0x1036 <RX_Taskhandler+0xe>
    1036:	00 d0       	rcall	.+0      	; 0x1038 <RX_Taskhandler+0x10>
    1038:	1f 92       	push	r1
    103a:	cd b7       	in	r28, 0x3d	; 61
    103c:	de b7       	in	r29, 0x3e	; 62
    103e:	8c 01       	movw	r16, r24
	do
	{
		/**************************************************
		*				    TASK 1						  *
		**************************************************/
		if (UART0->RX_Task[TASK1])
    1040:	f8 01       	movw	r30, r16
    1042:	ed 57       	subi	r30, 0x7D	; 125
    1044:	ff 4f       	sbci	r31, 0xFF	; 255
    1046:	80 81       	ld	r24, Z
    1048:	88 23       	and	r24, r24
    104a:	69 f0       	breq	.+26     	; 0x1066 <RX_Taskhandler+0x3e>
		{
			printf("Hallo TASK1");
    104c:	80 e3       	ldi	r24, 0x30	; 48
    104e:	92 e0       	ldi	r25, 0x02	; 2
    1050:	9f 93       	push	r25
    1052:	8f 93       	push	r24
    1054:	0e 94 04 12 	call	0x2408	; 0x2408 <printf>
			UART0->RX_Task[TASK1] = 0;
    1058:	f8 01       	movw	r30, r16
    105a:	ed 57       	subi	r30, 0x7D	; 125
    105c:	ff 4f       	sbci	r31, 0xFF	; 255
    105e:	10 82       	st	Z, r1
			break;
    1060:	0f 90       	pop	r0
    1062:	0f 90       	pop	r0
    1064:	c1 c1       	rjmp	.+898    	; 0x13e8 <__stack+0x2e9>
		}
		/**************************************************
		*				    TASK 2						  *
		**************************************************/		
		if (UART0->RX_Task[TASK2])
    1066:	f8 01       	movw	r30, r16
    1068:	ec 57       	subi	r30, 0x7C	; 124
    106a:	ff 4f       	sbci	r31, 0xFF	; 255
    106c:	80 81       	ld	r24, Z
    106e:	88 23       	and	r24, r24
    1070:	69 f0       	breq	.+26     	; 0x108c <RX_Taskhandler+0x64>
		{
			printf("Hallo TASK2");
    1072:	8c e3       	ldi	r24, 0x3C	; 60
    1074:	92 e0       	ldi	r25, 0x02	; 2
    1076:	9f 93       	push	r25
    1078:	8f 93       	push	r24
    107a:	0e 94 04 12 	call	0x2408	; 0x2408 <printf>
			UART0->RX_Task[TASK2] = 0;
    107e:	f8 01       	movw	r30, r16
    1080:	ec 57       	subi	r30, 0x7C	; 124
    1082:	ff 4f       	sbci	r31, 0xFF	; 255
    1084:	10 82       	st	Z, r1
			break;
    1086:	0f 90       	pop	r0
    1088:	0f 90       	pop	r0
    108a:	ae c1       	rjmp	.+860    	; 0x13e8 <__stack+0x2e9>
		}	
		/**************************************************
		*				    SET_TEMP_L					  *
		**************************************************/		
		if (UART0->RX_Task[SET_TEMP_L])
    108c:	f8 01       	movw	r30, r16
    108e:	eb 57       	subi	r30, 0x7B	; 123
    1090:	ff 4f       	sbci	r31, 0xFF	; 255
    1092:	80 81       	ld	r24, Z
    1094:	88 23       	and	r24, r24
    1096:	71 f1       	breq	.+92     	; 0x10f4 <RX_Taskhandler+0xcc>
		{		
			char lokal_String [5];
			
			sprintf(lokal_String, "%c%c%c", UART0->RX_Buf[16], UART0->RX_Buf[17], UART0->RX_Buf[18]);
    1098:	f8 01       	movw	r30, r16
    109a:	22 89       	ldd	r18, Z+18	; 0x12
    109c:	91 89       	ldd	r25, Z+17	; 0x11
    109e:	80 89       	ldd	r24, Z+16	; 0x10
    10a0:	1f 92       	push	r1
    10a2:	2f 93       	push	r18
    10a4:	1f 92       	push	r1
    10a6:	9f 93       	push	r25
    10a8:	1f 92       	push	r1
    10aa:	8f 93       	push	r24
    10ac:	88 e4       	ldi	r24, 0x48	; 72
    10ae:	92 e0       	ldi	r25, 0x02	; 2
    10b0:	9f 93       	push	r25
    10b2:	8f 93       	push	r24
    10b4:	ce 01       	movw	r24, r28
    10b6:	01 96       	adiw	r24, 0x01	; 1
    10b8:	7c 01       	movw	r14, r24
    10ba:	9f 93       	push	r25
    10bc:	8f 93       	push	r24
    10be:	0e 94 4a 12 	call	0x2494	; 0x2494 <sprintf>
			Physical_Border.Temp[L] = atoi(lokal_String);
    10c2:	c7 01       	movw	r24, r14
    10c4:	0e 94 a6 10 	call	0x214c	; 0x214c <atoi>
    10c8:	ec ed       	ldi	r30, 0xDC	; 220
    10ca:	f3 e0       	ldi	r31, 0x03	; 3
    10cc:	84 83       	std	Z+4, r24	; 0x04
    10ce:	95 83       	std	Z+5, r25	; 0x05
			printf("TEMP_L: %d C \n", Physical_Border.Temp[L]);
    10d0:	9f 93       	push	r25
    10d2:	8f 93       	push	r24
    10d4:	8f e4       	ldi	r24, 0x4F	; 79
    10d6:	92 e0       	ldi	r25, 0x02	; 2
    10d8:	9f 93       	push	r25
    10da:	8f 93       	push	r24
    10dc:	0e 94 04 12 	call	0x2408	; 0x2408 <printf>
			
			_UART_break(SET_TEMP_L);
    10e0:	f8 01       	movw	r30, r16
    10e2:	eb 57       	subi	r30, 0x7B	; 123
    10e4:	ff 4f       	sbci	r31, 0xFF	; 255
    10e6:	10 82       	st	Z, r1
    10e8:	0f b6       	in	r0, 0x3f	; 63
    10ea:	f8 94       	cli
    10ec:	de bf       	out	0x3e, r29	; 62
    10ee:	0f be       	out	0x3f, r0	; 63
    10f0:	cd bf       	out	0x3d, r28	; 61
    10f2:	7a c1       	rjmp	.+756    	; 0x13e8 <__stack+0x2e9>
		}
		/**************************************************
		*				    SET_TEMP_H					  *
		**************************************************/		
		if (UART0->RX_Task[SET_TEMP_H])
    10f4:	f8 01       	movw	r30, r16
    10f6:	ea 57       	subi	r30, 0x7A	; 122
    10f8:	ff 4f       	sbci	r31, 0xFF	; 255
    10fa:	80 81       	ld	r24, Z
    10fc:	88 23       	and	r24, r24
    10fe:	71 f1       	breq	.+92     	; 0x115c <__stack+0x5d>
		{
			char lokal_String [5];
			
			sprintf(lokal_String, "%c%c%c", UART0->RX_Buf[16], UART0->RX_Buf[17], UART0->RX_Buf[18]);
    1100:	f8 01       	movw	r30, r16
    1102:	22 89       	ldd	r18, Z+18	; 0x12
    1104:	91 89       	ldd	r25, Z+17	; 0x11
    1106:	80 89       	ldd	r24, Z+16	; 0x10
    1108:	1f 92       	push	r1
    110a:	2f 93       	push	r18
    110c:	1f 92       	push	r1
    110e:	9f 93       	push	r25
    1110:	1f 92       	push	r1
    1112:	8f 93       	push	r24
    1114:	88 e4       	ldi	r24, 0x48	; 72
    1116:	92 e0       	ldi	r25, 0x02	; 2
    1118:	9f 93       	push	r25
    111a:	8f 93       	push	r24
    111c:	ce 01       	movw	r24, r28
    111e:	01 96       	adiw	r24, 0x01	; 1
    1120:	7c 01       	movw	r14, r24
    1122:	9f 93       	push	r25
    1124:	8f 93       	push	r24
    1126:	0e 94 4a 12 	call	0x2494	; 0x2494 <sprintf>
			Physical_Border.Temp[H] = atoi(lokal_String);
    112a:	c7 01       	movw	r24, r14
    112c:	0e 94 a6 10 	call	0x214c	; 0x214c <atoi>
    1130:	ec ed       	ldi	r30, 0xDC	; 220
    1132:	f3 e0       	ldi	r31, 0x03	; 3
    1134:	82 83       	std	Z+2, r24	; 0x02
    1136:	93 83       	std	Z+3, r25	; 0x03
			printf("TEMP_H: %d C \n", Physical_Border.Temp[H]);
    1138:	9f 93       	push	r25
    113a:	8f 93       	push	r24
    113c:	8e e5       	ldi	r24, 0x5E	; 94
    113e:	92 e0       	ldi	r25, 0x02	; 2
    1140:	9f 93       	push	r25
    1142:	8f 93       	push	r24
    1144:	0e 94 04 12 	call	0x2408	; 0x2408 <printf>
			
			_UART_break(SET_TEMP_H);
    1148:	f8 01       	movw	r30, r16
    114a:	ea 57       	subi	r30, 0x7A	; 122
    114c:	ff 4f       	sbci	r31, 0xFF	; 255
    114e:	10 82       	st	Z, r1
    1150:	0f b6       	in	r0, 0x3f	; 63
    1152:	f8 94       	cli
    1154:	de bf       	out	0x3e, r29	; 62
    1156:	0f be       	out	0x3f, r0	; 63
    1158:	cd bf       	out	0x3d, r28	; 61
    115a:	46 c1       	rjmp	.+652    	; 0x13e8 <__stack+0x2e9>
		}
		/**************************************************
		*				    SET_LUMI_L					  *
		**************************************************/		
		if (UART0->RX_Task[SET_LUMI_L])
    115c:	f8 01       	movw	r30, r16
    115e:	e9 57       	subi	r30, 0x79	; 121
    1160:	ff 4f       	sbci	r31, 0xFF	; 255
    1162:	80 81       	ld	r24, Z
    1164:	88 23       	and	r24, r24
    1166:	89 f1       	breq	.+98     	; 0x11ca <__stack+0xcb>
		{		
			char lokal_String [5];
			
			sprintf(lokal_String, "%c%c%c", UART0->RX_Buf[16], UART0->RX_Buf[17], UART0->RX_Buf[18], UART0->RX_Buf[19]);
    1168:	f8 01       	movw	r30, r16
    116a:	33 89       	ldd	r19, Z+19	; 0x13
    116c:	22 89       	ldd	r18, Z+18	; 0x12
    116e:	91 89       	ldd	r25, Z+17	; 0x11
    1170:	80 89       	ldd	r24, Z+16	; 0x10
    1172:	1f 92       	push	r1
    1174:	3f 93       	push	r19
    1176:	1f 92       	push	r1
    1178:	2f 93       	push	r18
    117a:	1f 92       	push	r1
    117c:	9f 93       	push	r25
    117e:	1f 92       	push	r1
    1180:	8f 93       	push	r24
    1182:	88 e4       	ldi	r24, 0x48	; 72
    1184:	92 e0       	ldi	r25, 0x02	; 2
    1186:	9f 93       	push	r25
    1188:	8f 93       	push	r24
    118a:	ce 01       	movw	r24, r28
    118c:	01 96       	adiw	r24, 0x01	; 1
    118e:	7c 01       	movw	r14, r24
    1190:	9f 93       	push	r25
    1192:	8f 93       	push	r24
    1194:	0e 94 4a 12 	call	0x2494	; 0x2494 <sprintf>
			Physical_Border.Lumi[L] = atoi(lokal_String);
    1198:	c7 01       	movw	r24, r14
    119a:	0e 94 a6 10 	call	0x214c	; 0x214c <atoi>
    119e:	ec ed       	ldi	r30, 0xDC	; 220
    11a0:	f3 e0       	ldi	r31, 0x03	; 3
    11a2:	80 87       	std	Z+8, r24	; 0x08
    11a4:	91 87       	std	Z+9, r25	; 0x09
			printf("LUMI_L: %d C \n", Physical_Border.Lumi[L]);
    11a6:	9f 93       	push	r25
    11a8:	8f 93       	push	r24
    11aa:	8d e6       	ldi	r24, 0x6D	; 109
    11ac:	92 e0       	ldi	r25, 0x02	; 2
    11ae:	9f 93       	push	r25
    11b0:	8f 93       	push	r24
    11b2:	0e 94 04 12 	call	0x2408	; 0x2408 <printf>
			
			_UART_break(SET_LUMI_L);
    11b6:	f8 01       	movw	r30, r16
    11b8:	e9 57       	subi	r30, 0x79	; 121
    11ba:	ff 4f       	sbci	r31, 0xFF	; 255
    11bc:	10 82       	st	Z, r1
    11be:	0f b6       	in	r0, 0x3f	; 63
    11c0:	f8 94       	cli
    11c2:	de bf       	out	0x3e, r29	; 62
    11c4:	0f be       	out	0x3f, r0	; 63
    11c6:	cd bf       	out	0x3d, r28	; 61
    11c8:	0f c1       	rjmp	.+542    	; 0x13e8 <__stack+0x2e9>
		}
		/**************************************************
		*				    SET_LUMI_H					  *
		**************************************************/		
		if (UART0->RX_Task[SET_LUMI_H])
    11ca:	f8 01       	movw	r30, r16
    11cc:	e8 57       	subi	r30, 0x78	; 120
    11ce:	ff 4f       	sbci	r31, 0xFF	; 255
    11d0:	80 81       	ld	r24, Z
    11d2:	88 23       	and	r24, r24
    11d4:	89 f1       	breq	.+98     	; 0x1238 <__stack+0x139>
		{
			char lokal_String [5];
			
			sprintf(lokal_String, "%c%c%c", UART0->RX_Buf[16], UART0->RX_Buf[17], UART0->RX_Buf[18], UART0->RX_Buf[19]);
    11d6:	f8 01       	movw	r30, r16
    11d8:	33 89       	ldd	r19, Z+19	; 0x13
    11da:	22 89       	ldd	r18, Z+18	; 0x12
    11dc:	91 89       	ldd	r25, Z+17	; 0x11
    11de:	80 89       	ldd	r24, Z+16	; 0x10
    11e0:	1f 92       	push	r1
    11e2:	3f 93       	push	r19
    11e4:	1f 92       	push	r1
    11e6:	2f 93       	push	r18
    11e8:	1f 92       	push	r1
    11ea:	9f 93       	push	r25
    11ec:	1f 92       	push	r1
    11ee:	8f 93       	push	r24
    11f0:	88 e4       	ldi	r24, 0x48	; 72
    11f2:	92 e0       	ldi	r25, 0x02	; 2
    11f4:	9f 93       	push	r25
    11f6:	8f 93       	push	r24
    11f8:	ce 01       	movw	r24, r28
    11fa:	01 96       	adiw	r24, 0x01	; 1
    11fc:	7c 01       	movw	r14, r24
    11fe:	9f 93       	push	r25
    1200:	8f 93       	push	r24
    1202:	0e 94 4a 12 	call	0x2494	; 0x2494 <sprintf>
			Physical_Border.Lumi[H] = atoi(lokal_String);
    1206:	c7 01       	movw	r24, r14
    1208:	0e 94 a6 10 	call	0x214c	; 0x214c <atoi>
    120c:	ec ed       	ldi	r30, 0xDC	; 220
    120e:	f3 e0       	ldi	r31, 0x03	; 3
    1210:	86 83       	std	Z+6, r24	; 0x06
    1212:	97 83       	std	Z+7, r25	; 0x07
			printf("LUMI_H: %d C \n", Physical_Border.Lumi[H]);
    1214:	9f 93       	push	r25
    1216:	8f 93       	push	r24
    1218:	8c e7       	ldi	r24, 0x7C	; 124
    121a:	92 e0       	ldi	r25, 0x02	; 2
    121c:	9f 93       	push	r25
    121e:	8f 93       	push	r24
    1220:	0e 94 04 12 	call	0x2408	; 0x2408 <printf>
			
			_UART_break(SET_LUMI_H);
    1224:	f8 01       	movw	r30, r16
    1226:	e8 57       	subi	r30, 0x78	; 120
    1228:	ff 4f       	sbci	r31, 0xFF	; 255
    122a:	10 82       	st	Z, r1
    122c:	0f b6       	in	r0, 0x3f	; 63
    122e:	f8 94       	cli
    1230:	de bf       	out	0x3e, r29	; 62
    1232:	0f be       	out	0x3f, r0	; 63
    1234:	cd bf       	out	0x3d, r28	; 61
    1236:	d8 c0       	rjmp	.+432    	; 0x13e8 <__stack+0x2e9>
		}
		/**************************************************
		*				    SET_HUMI_L					  *
		**************************************************/		
		if (UART0->RX_Task[SET_HUMI_L])
    1238:	f8 01       	movw	r30, r16
    123a:	e7 57       	subi	r30, 0x77	; 119
    123c:	ff 4f       	sbci	r31, 0xFF	; 255
    123e:	80 81       	ld	r24, Z
    1240:	88 23       	and	r24, r24
    1242:	71 f1       	breq	.+92     	; 0x12a0 <__stack+0x1a1>
		{		
			char lokal_String [5];
			
			sprintf(lokal_String, "%c%c%c", UART0->RX_Buf[16], UART0->RX_Buf[17], UART0->RX_Buf[18]);
    1244:	f8 01       	movw	r30, r16
    1246:	22 89       	ldd	r18, Z+18	; 0x12
    1248:	91 89       	ldd	r25, Z+17	; 0x11
    124a:	80 89       	ldd	r24, Z+16	; 0x10
    124c:	1f 92       	push	r1
    124e:	2f 93       	push	r18
    1250:	1f 92       	push	r1
    1252:	9f 93       	push	r25
    1254:	1f 92       	push	r1
    1256:	8f 93       	push	r24
    1258:	88 e4       	ldi	r24, 0x48	; 72
    125a:	92 e0       	ldi	r25, 0x02	; 2
    125c:	9f 93       	push	r25
    125e:	8f 93       	push	r24
    1260:	ce 01       	movw	r24, r28
    1262:	01 96       	adiw	r24, 0x01	; 1
    1264:	7c 01       	movw	r14, r24
    1266:	9f 93       	push	r25
    1268:	8f 93       	push	r24
    126a:	0e 94 4a 12 	call	0x2494	; 0x2494 <sprintf>
			Physical_Border.Humi[L] = atoi(lokal_String);
    126e:	c7 01       	movw	r24, r14
    1270:	0e 94 a6 10 	call	0x214c	; 0x214c <atoi>
    1274:	ec ed       	ldi	r30, 0xDC	; 220
    1276:	f3 e0       	ldi	r31, 0x03	; 3
    1278:	84 87       	std	Z+12, r24	; 0x0c
    127a:	95 87       	std	Z+13, r25	; 0x0d
			printf("HUMI_L: %d C \n", Physical_Border.Humi[L]);
    127c:	9f 93       	push	r25
    127e:	8f 93       	push	r24
    1280:	8e e8       	ldi	r24, 0x8E	; 142
    1282:	92 e0       	ldi	r25, 0x02	; 2
    1284:	9f 93       	push	r25
    1286:	8f 93       	push	r24
    1288:	0e 94 04 12 	call	0x2408	; 0x2408 <printf>
			
			_UART_break(SET_HUMI_L);
    128c:	f8 01       	movw	r30, r16
    128e:	e7 57       	subi	r30, 0x77	; 119
    1290:	ff 4f       	sbci	r31, 0xFF	; 255
    1292:	10 82       	st	Z, r1
    1294:	0f b6       	in	r0, 0x3f	; 63
    1296:	f8 94       	cli
    1298:	de bf       	out	0x3e, r29	; 62
    129a:	0f be       	out	0x3f, r0	; 63
    129c:	cd bf       	out	0x3d, r28	; 61
    129e:	a4 c0       	rjmp	.+328    	; 0x13e8 <__stack+0x2e9>
		}
		/**************************************************
		*				    SET_HUMI_H					  *
		**************************************************/		
		if (UART0->RX_Task[SET_HUMI_H])
    12a0:	f8 01       	movw	r30, r16
    12a2:	e6 57       	subi	r30, 0x76	; 118
    12a4:	ff 4f       	sbci	r31, 0xFF	; 255
    12a6:	80 81       	ld	r24, Z
    12a8:	88 23       	and	r24, r24
    12aa:	71 f1       	breq	.+92     	; 0x1308 <__stack+0x209>
		{
			char lokal_String [5];
			
			sprintf(lokal_String, "%c%c%c", UART0->RX_Buf[16], UART0->RX_Buf[17], UART0->RX_Buf[18]);
    12ac:	f8 01       	movw	r30, r16
    12ae:	22 89       	ldd	r18, Z+18	; 0x12
    12b0:	91 89       	ldd	r25, Z+17	; 0x11
    12b2:	80 89       	ldd	r24, Z+16	; 0x10
    12b4:	1f 92       	push	r1
    12b6:	2f 93       	push	r18
    12b8:	1f 92       	push	r1
    12ba:	9f 93       	push	r25
    12bc:	1f 92       	push	r1
    12be:	8f 93       	push	r24
    12c0:	88 e4       	ldi	r24, 0x48	; 72
    12c2:	92 e0       	ldi	r25, 0x02	; 2
    12c4:	9f 93       	push	r25
    12c6:	8f 93       	push	r24
    12c8:	ce 01       	movw	r24, r28
    12ca:	01 96       	adiw	r24, 0x01	; 1
    12cc:	7c 01       	movw	r14, r24
    12ce:	9f 93       	push	r25
    12d0:	8f 93       	push	r24
    12d2:	0e 94 4a 12 	call	0x2494	; 0x2494 <sprintf>
			Physical_Border.Humi[H] = atoi(lokal_String);
    12d6:	c7 01       	movw	r24, r14
    12d8:	0e 94 a6 10 	call	0x214c	; 0x214c <atoi>
    12dc:	ec ed       	ldi	r30, 0xDC	; 220
    12de:	f3 e0       	ldi	r31, 0x03	; 3
    12e0:	82 87       	std	Z+10, r24	; 0x0a
    12e2:	93 87       	std	Z+11, r25	; 0x0b
			printf("HUMI_H: %d C \n", Physical_Border.Humi[H]);
    12e4:	9f 93       	push	r25
    12e6:	8f 93       	push	r24
    12e8:	80 ea       	ldi	r24, 0xA0	; 160
    12ea:	92 e0       	ldi	r25, 0x02	; 2
    12ec:	9f 93       	push	r25
    12ee:	8f 93       	push	r24
    12f0:	0e 94 04 12 	call	0x2408	; 0x2408 <printf>
			
			_UART_break(SET_HUMI_H);
    12f4:	f8 01       	movw	r30, r16
    12f6:	e6 57       	subi	r30, 0x76	; 118
    12f8:	ff 4f       	sbci	r31, 0xFF	; 255
    12fa:	10 82       	st	Z, r1
    12fc:	0f b6       	in	r0, 0x3f	; 63
    12fe:	f8 94       	cli
    1300:	de bf       	out	0x3e, r29	; 62
    1302:	0f be       	out	0x3f, r0	; 63
    1304:	cd bf       	out	0x3d, r28	; 61
    1306:	70 c0       	rjmp	.+224    	; 0x13e8 <__stack+0x2e9>
		}		
		/**************************************************
		*				    SET_HUMI_L					  *
		**************************************************/		
		if (UART0->RX_Task[SET_GHUM_L])
    1308:	f8 01       	movw	r30, r16
    130a:	e5 57       	subi	r30, 0x75	; 117
    130c:	ff 4f       	sbci	r31, 0xFF	; 255
    130e:	80 81       	ld	r24, Z
    1310:	88 23       	and	r24, r24
    1312:	71 f1       	breq	.+92     	; 0x1370 <__stack+0x271>
		{		
			char lokal_String [5];
			
			sprintf(lokal_String, "%c%c%c", UART0->RX_Buf[16], UART0->RX_Buf[17], UART0->RX_Buf[18]);
    1314:	f8 01       	movw	r30, r16
    1316:	22 89       	ldd	r18, Z+18	; 0x12
    1318:	91 89       	ldd	r25, Z+17	; 0x11
    131a:	80 89       	ldd	r24, Z+16	; 0x10
    131c:	1f 92       	push	r1
    131e:	2f 93       	push	r18
    1320:	1f 92       	push	r1
    1322:	9f 93       	push	r25
    1324:	1f 92       	push	r1
    1326:	8f 93       	push	r24
    1328:	88 e4       	ldi	r24, 0x48	; 72
    132a:	92 e0       	ldi	r25, 0x02	; 2
    132c:	9f 93       	push	r25
    132e:	8f 93       	push	r24
    1330:	ce 01       	movw	r24, r28
    1332:	01 96       	adiw	r24, 0x01	; 1
    1334:	7c 01       	movw	r14, r24
    1336:	9f 93       	push	r25
    1338:	8f 93       	push	r24
    133a:	0e 94 4a 12 	call	0x2494	; 0x2494 <sprintf>
			Physical_Border.GHum[L] = atoi(lokal_String);
    133e:	c7 01       	movw	r24, r14
    1340:	0e 94 a6 10 	call	0x214c	; 0x214c <atoi>
    1344:	ec ed       	ldi	r30, 0xDC	; 220
    1346:	f3 e0       	ldi	r31, 0x03	; 3
    1348:	80 8b       	std	Z+16, r24	; 0x10
    134a:	91 8b       	std	Z+17, r25	; 0x11
			printf("GNDHUMI_L: %d C \n", Physical_Border.GHum[L]);
    134c:	9f 93       	push	r25
    134e:	8f 93       	push	r24
    1350:	8b e8       	ldi	r24, 0x8B	; 139
    1352:	92 e0       	ldi	r25, 0x02	; 2
    1354:	9f 93       	push	r25
    1356:	8f 93       	push	r24
    1358:	0e 94 04 12 	call	0x2408	; 0x2408 <printf>
			
			_UART_break(SET_GHUM_L);
    135c:	f8 01       	movw	r30, r16
    135e:	e5 57       	subi	r30, 0x75	; 117
    1360:	ff 4f       	sbci	r31, 0xFF	; 255
    1362:	10 82       	st	Z, r1
    1364:	0f b6       	in	r0, 0x3f	; 63
    1366:	f8 94       	cli
    1368:	de bf       	out	0x3e, r29	; 62
    136a:	0f be       	out	0x3f, r0	; 63
    136c:	cd bf       	out	0x3d, r28	; 61
    136e:	3c c0       	rjmp	.+120    	; 0x13e8 <__stack+0x2e9>
		}
		/**************************************************
		*				    SET_HUMI_H					  *
		**************************************************/		
		if (UART0->RX_Task[SET_GHUM_H])
    1370:	f8 01       	movw	r30, r16
    1372:	e4 57       	subi	r30, 0x74	; 116
    1374:	ff 4f       	sbci	r31, 0xFF	; 255
    1376:	80 81       	ld	r24, Z
    1378:	88 23       	and	r24, r24
    137a:	71 f1       	breq	.+92     	; 0x13d8 <__stack+0x2d9>
		{
			char lokal_String [5];
			
			sprintf(lokal_String, "%c%c%c", UART0->RX_Buf[16], UART0->RX_Buf[17], UART0->RX_Buf[18]);
    137c:	f8 01       	movw	r30, r16
    137e:	22 89       	ldd	r18, Z+18	; 0x12
    1380:	91 89       	ldd	r25, Z+17	; 0x11
    1382:	80 89       	ldd	r24, Z+16	; 0x10
    1384:	1f 92       	push	r1
    1386:	2f 93       	push	r18
    1388:	1f 92       	push	r1
    138a:	9f 93       	push	r25
    138c:	1f 92       	push	r1
    138e:	8f 93       	push	r24
    1390:	88 e4       	ldi	r24, 0x48	; 72
    1392:	92 e0       	ldi	r25, 0x02	; 2
    1394:	9f 93       	push	r25
    1396:	8f 93       	push	r24
    1398:	ce 01       	movw	r24, r28
    139a:	01 96       	adiw	r24, 0x01	; 1
    139c:	7c 01       	movw	r14, r24
    139e:	9f 93       	push	r25
    13a0:	8f 93       	push	r24
    13a2:	0e 94 4a 12 	call	0x2494	; 0x2494 <sprintf>
			Physical_Border.GHum[H] = atoi(lokal_String);
    13a6:	c7 01       	movw	r24, r14
    13a8:	0e 94 a6 10 	call	0x214c	; 0x214c <atoi>
    13ac:	ec ed       	ldi	r30, 0xDC	; 220
    13ae:	f3 e0       	ldi	r31, 0x03	; 3
    13b0:	86 87       	std	Z+14, r24	; 0x0e
    13b2:	97 87       	std	Z+15, r25	; 0x0f
			printf("GNDHUMI_H: %d C \n", Physical_Border.GHum[H]);
    13b4:	9f 93       	push	r25
    13b6:	8f 93       	push	r24
    13b8:	8d e9       	ldi	r24, 0x9D	; 157
    13ba:	92 e0       	ldi	r25, 0x02	; 2
    13bc:	9f 93       	push	r25
    13be:	8f 93       	push	r24
    13c0:	0e 94 04 12 	call	0x2408	; 0x2408 <printf>
			
			_UART_break(SET_GHUM_H);
    13c4:	f8 01       	movw	r30, r16
    13c6:	e4 57       	subi	r30, 0x74	; 116
    13c8:	ff 4f       	sbci	r31, 0xFF	; 255
    13ca:	10 82       	st	Z, r1
    13cc:	0f b6       	in	r0, 0x3f	; 63
    13ce:	f8 94       	cli
    13d0:	de bf       	out	0x3e, r29	; 62
    13d2:	0f be       	out	0x3f, r0	; 63
    13d4:	cd bf       	out	0x3d, r28	; 61
    13d6:	08 c0       	rjmp	.+16     	; 0x13e8 <__stack+0x2e9>
		}
		
		
		counter++;
    13d8:	80 91 b6 02 	lds	r24, 0x02B6	; 0x8002b6 <counter.2106>
    13dc:	8f 5f       	subi	r24, 0xFF	; 255
    13de:	80 93 b6 02 	sts	0x02B6, r24	; 0x8002b6 <counter.2106>
	}
	while(counter <= (RX_Task_size - 1));
    13e2:	8a 30       	cpi	r24, 0x0A	; 10
    13e4:	08 f4       	brcc	.+2      	; 0x13e8 <__stack+0x2e9>
    13e6:	2c ce       	rjmp	.-936    	; 0x1040 <RX_Taskhandler+0x18>
}
    13e8:	0f 90       	pop	r0
    13ea:	0f 90       	pop	r0
    13ec:	0f 90       	pop	r0
    13ee:	0f 90       	pop	r0
    13f0:	0f 90       	pop	r0
    13f2:	df 91       	pop	r29
    13f4:	cf 91       	pop	r28
    13f6:	1f 91       	pop	r17
    13f8:	0f 91       	pop	r16
    13fa:	ff 90       	pop	r15
    13fc:	ef 90       	pop	r14
    13fe:	08 95       	ret

00001400 <__subsf3>:
    1400:	50 58       	subi	r21, 0x80	; 128

00001402 <__addsf3>:
    1402:	bb 27       	eor	r27, r27
    1404:	aa 27       	eor	r26, r26
    1406:	0e 94 18 0a 	call	0x1430	; 0x1430 <__addsf3x>
    140a:	0c 94 c2 0a 	jmp	0x1584	; 0x1584 <__fp_round>
    140e:	0e 94 b4 0a 	call	0x1568	; 0x1568 <__fp_pscA>
    1412:	38 f0       	brcs	.+14     	; 0x1422 <__addsf3+0x20>
    1414:	0e 94 bb 0a 	call	0x1576	; 0x1576 <__fp_pscB>
    1418:	20 f0       	brcs	.+8      	; 0x1422 <__addsf3+0x20>
    141a:	39 f4       	brne	.+14     	; 0x142a <__addsf3+0x28>
    141c:	9f 3f       	cpi	r25, 0xFF	; 255
    141e:	19 f4       	brne	.+6      	; 0x1426 <__addsf3+0x24>
    1420:	26 f4       	brtc	.+8      	; 0x142a <__addsf3+0x28>
    1422:	0c 94 b1 0a 	jmp	0x1562	; 0x1562 <__fp_nan>
    1426:	0e f4       	brtc	.+2      	; 0x142a <__addsf3+0x28>
    1428:	e0 95       	com	r30
    142a:	e7 fb       	bst	r30, 7
    142c:	0c 94 ab 0a 	jmp	0x1556	; 0x1556 <__fp_inf>

00001430 <__addsf3x>:
    1430:	e9 2f       	mov	r30, r25
    1432:	0e 94 d3 0a 	call	0x15a6	; 0x15a6 <__fp_split3>
    1436:	58 f3       	brcs	.-42     	; 0x140e <__addsf3+0xc>
    1438:	ba 17       	cp	r27, r26
    143a:	62 07       	cpc	r22, r18
    143c:	73 07       	cpc	r23, r19
    143e:	84 07       	cpc	r24, r20
    1440:	95 07       	cpc	r25, r21
    1442:	20 f0       	brcs	.+8      	; 0x144c <__addsf3x+0x1c>
    1444:	79 f4       	brne	.+30     	; 0x1464 <__addsf3x+0x34>
    1446:	a6 f5       	brtc	.+104    	; 0x14b0 <__addsf3x+0x80>
    1448:	0c 94 f5 0a 	jmp	0x15ea	; 0x15ea <__fp_zero>
    144c:	0e f4       	brtc	.+2      	; 0x1450 <__addsf3x+0x20>
    144e:	e0 95       	com	r30
    1450:	0b 2e       	mov	r0, r27
    1452:	ba 2f       	mov	r27, r26
    1454:	a0 2d       	mov	r26, r0
    1456:	0b 01       	movw	r0, r22
    1458:	b9 01       	movw	r22, r18
    145a:	90 01       	movw	r18, r0
    145c:	0c 01       	movw	r0, r24
    145e:	ca 01       	movw	r24, r20
    1460:	a0 01       	movw	r20, r0
    1462:	11 24       	eor	r1, r1
    1464:	ff 27       	eor	r31, r31
    1466:	59 1b       	sub	r21, r25
    1468:	99 f0       	breq	.+38     	; 0x1490 <__addsf3x+0x60>
    146a:	59 3f       	cpi	r21, 0xF9	; 249
    146c:	50 f4       	brcc	.+20     	; 0x1482 <__addsf3x+0x52>
    146e:	50 3e       	cpi	r21, 0xE0	; 224
    1470:	68 f1       	brcs	.+90     	; 0x14cc <__addsf3x+0x9c>
    1472:	1a 16       	cp	r1, r26
    1474:	f0 40       	sbci	r31, 0x00	; 0
    1476:	a2 2f       	mov	r26, r18
    1478:	23 2f       	mov	r18, r19
    147a:	34 2f       	mov	r19, r20
    147c:	44 27       	eor	r20, r20
    147e:	58 5f       	subi	r21, 0xF8	; 248
    1480:	f3 cf       	rjmp	.-26     	; 0x1468 <__addsf3x+0x38>
    1482:	46 95       	lsr	r20
    1484:	37 95       	ror	r19
    1486:	27 95       	ror	r18
    1488:	a7 95       	ror	r26
    148a:	f0 40       	sbci	r31, 0x00	; 0
    148c:	53 95       	inc	r21
    148e:	c9 f7       	brne	.-14     	; 0x1482 <__addsf3x+0x52>
    1490:	7e f4       	brtc	.+30     	; 0x14b0 <__addsf3x+0x80>
    1492:	1f 16       	cp	r1, r31
    1494:	ba 0b       	sbc	r27, r26
    1496:	62 0b       	sbc	r22, r18
    1498:	73 0b       	sbc	r23, r19
    149a:	84 0b       	sbc	r24, r20
    149c:	ba f0       	brmi	.+46     	; 0x14cc <__addsf3x+0x9c>
    149e:	91 50       	subi	r25, 0x01	; 1
    14a0:	a1 f0       	breq	.+40     	; 0x14ca <__addsf3x+0x9a>
    14a2:	ff 0f       	add	r31, r31
    14a4:	bb 1f       	adc	r27, r27
    14a6:	66 1f       	adc	r22, r22
    14a8:	77 1f       	adc	r23, r23
    14aa:	88 1f       	adc	r24, r24
    14ac:	c2 f7       	brpl	.-16     	; 0x149e <__addsf3x+0x6e>
    14ae:	0e c0       	rjmp	.+28     	; 0x14cc <__addsf3x+0x9c>
    14b0:	ba 0f       	add	r27, r26
    14b2:	62 1f       	adc	r22, r18
    14b4:	73 1f       	adc	r23, r19
    14b6:	84 1f       	adc	r24, r20
    14b8:	48 f4       	brcc	.+18     	; 0x14cc <__addsf3x+0x9c>
    14ba:	87 95       	ror	r24
    14bc:	77 95       	ror	r23
    14be:	67 95       	ror	r22
    14c0:	b7 95       	ror	r27
    14c2:	f7 95       	ror	r31
    14c4:	9e 3f       	cpi	r25, 0xFE	; 254
    14c6:	08 f0       	brcs	.+2      	; 0x14ca <__addsf3x+0x9a>
    14c8:	b0 cf       	rjmp	.-160    	; 0x142a <__addsf3+0x28>
    14ca:	93 95       	inc	r25
    14cc:	88 0f       	add	r24, r24
    14ce:	08 f0       	brcs	.+2      	; 0x14d2 <__addsf3x+0xa2>
    14d0:	99 27       	eor	r25, r25
    14d2:	ee 0f       	add	r30, r30
    14d4:	97 95       	ror	r25
    14d6:	87 95       	ror	r24
    14d8:	08 95       	ret

000014da <__floatundisf>:
    14da:	e8 94       	clt

000014dc <__fp_di2sf>:
    14dc:	f9 2f       	mov	r31, r25
    14de:	96 eb       	ldi	r25, 0xB6	; 182
    14e0:	ff 23       	and	r31, r31
    14e2:	81 f0       	breq	.+32     	; 0x1504 <__fp_di2sf+0x28>
    14e4:	12 16       	cp	r1, r18
    14e6:	13 06       	cpc	r1, r19
    14e8:	14 06       	cpc	r1, r20
    14ea:	44 0b       	sbc	r20, r20
    14ec:	93 95       	inc	r25
    14ee:	f6 95       	lsr	r31
    14f0:	87 95       	ror	r24
    14f2:	77 95       	ror	r23
    14f4:	67 95       	ror	r22
    14f6:	57 95       	ror	r21
    14f8:	40 40       	sbci	r20, 0x00	; 0
    14fa:	ff 23       	and	r31, r31
    14fc:	b9 f7       	brne	.-18     	; 0x14ec <__fp_di2sf+0x10>
    14fe:	1b c0       	rjmp	.+54     	; 0x1536 <__fp_di2sf+0x5a>
    1500:	99 27       	eor	r25, r25
    1502:	08 95       	ret
    1504:	88 23       	and	r24, r24
    1506:	51 f4       	brne	.+20     	; 0x151c <__fp_di2sf+0x40>
    1508:	98 50       	subi	r25, 0x08	; 8
    150a:	d2 f7       	brpl	.-12     	; 0x1500 <__fp_di2sf+0x24>
    150c:	87 2b       	or	r24, r23
    150e:	76 2f       	mov	r23, r22
    1510:	65 2f       	mov	r22, r21
    1512:	54 2f       	mov	r21, r20
    1514:	43 2f       	mov	r20, r19
    1516:	32 2f       	mov	r19, r18
    1518:	20 e0       	ldi	r18, 0x00	; 0
    151a:	b1 f3       	breq	.-20     	; 0x1508 <__fp_di2sf+0x2c>
    151c:	12 16       	cp	r1, r18
    151e:	13 06       	cpc	r1, r19
    1520:	14 06       	cpc	r1, r20
    1522:	44 0b       	sbc	r20, r20
    1524:	88 23       	and	r24, r24
    1526:	3a f0       	brmi	.+14     	; 0x1536 <__fp_di2sf+0x5a>
    1528:	9a 95       	dec	r25
    152a:	44 0f       	add	r20, r20
    152c:	55 1f       	adc	r21, r21
    152e:	66 1f       	adc	r22, r22
    1530:	77 1f       	adc	r23, r23
    1532:	88 1f       	adc	r24, r24
    1534:	ca f7       	brpl	.-14     	; 0x1528 <__fp_di2sf+0x4c>
    1536:	55 23       	and	r21, r21
    1538:	4a f4       	brpl	.+18     	; 0x154c <__fp_di2sf+0x70>
    153a:	44 0f       	add	r20, r20
    153c:	55 1f       	adc	r21, r21
    153e:	11 f4       	brne	.+4      	; 0x1544 <__fp_di2sf+0x68>
    1540:	60 ff       	sbrs	r22, 0
    1542:	04 c0       	rjmp	.+8      	; 0x154c <__fp_di2sf+0x70>
    1544:	6f 5f       	subi	r22, 0xFF	; 255
    1546:	7f 4f       	sbci	r23, 0xFF	; 255
    1548:	8f 4f       	sbci	r24, 0xFF	; 255
    154a:	9f 4f       	sbci	r25, 0xFF	; 255
    154c:	88 0f       	add	r24, r24
    154e:	96 95       	lsr	r25
    1550:	87 95       	ror	r24
    1552:	97 f9       	bld	r25, 7
    1554:	08 95       	ret

00001556 <__fp_inf>:
    1556:	97 f9       	bld	r25, 7
    1558:	9f 67       	ori	r25, 0x7F	; 127
    155a:	80 e8       	ldi	r24, 0x80	; 128
    155c:	70 e0       	ldi	r23, 0x00	; 0
    155e:	60 e0       	ldi	r22, 0x00	; 0
    1560:	08 95       	ret

00001562 <__fp_nan>:
    1562:	9f ef       	ldi	r25, 0xFF	; 255
    1564:	80 ec       	ldi	r24, 0xC0	; 192
    1566:	08 95       	ret

00001568 <__fp_pscA>:
    1568:	00 24       	eor	r0, r0
    156a:	0a 94       	dec	r0
    156c:	16 16       	cp	r1, r22
    156e:	17 06       	cpc	r1, r23
    1570:	18 06       	cpc	r1, r24
    1572:	09 06       	cpc	r0, r25
    1574:	08 95       	ret

00001576 <__fp_pscB>:
    1576:	00 24       	eor	r0, r0
    1578:	0a 94       	dec	r0
    157a:	12 16       	cp	r1, r18
    157c:	13 06       	cpc	r1, r19
    157e:	14 06       	cpc	r1, r20
    1580:	05 06       	cpc	r0, r21
    1582:	08 95       	ret

00001584 <__fp_round>:
    1584:	09 2e       	mov	r0, r25
    1586:	03 94       	inc	r0
    1588:	00 0c       	add	r0, r0
    158a:	11 f4       	brne	.+4      	; 0x1590 <__fp_round+0xc>
    158c:	88 23       	and	r24, r24
    158e:	52 f0       	brmi	.+20     	; 0x15a4 <__fp_round+0x20>
    1590:	bb 0f       	add	r27, r27
    1592:	40 f4       	brcc	.+16     	; 0x15a4 <__fp_round+0x20>
    1594:	bf 2b       	or	r27, r31
    1596:	11 f4       	brne	.+4      	; 0x159c <__fp_round+0x18>
    1598:	60 ff       	sbrs	r22, 0
    159a:	04 c0       	rjmp	.+8      	; 0x15a4 <__fp_round+0x20>
    159c:	6f 5f       	subi	r22, 0xFF	; 255
    159e:	7f 4f       	sbci	r23, 0xFF	; 255
    15a0:	8f 4f       	sbci	r24, 0xFF	; 255
    15a2:	9f 4f       	sbci	r25, 0xFF	; 255
    15a4:	08 95       	ret

000015a6 <__fp_split3>:
    15a6:	57 fd       	sbrc	r21, 7
    15a8:	90 58       	subi	r25, 0x80	; 128
    15aa:	44 0f       	add	r20, r20
    15ac:	55 1f       	adc	r21, r21
    15ae:	59 f0       	breq	.+22     	; 0x15c6 <__fp_splitA+0x10>
    15b0:	5f 3f       	cpi	r21, 0xFF	; 255
    15b2:	71 f0       	breq	.+28     	; 0x15d0 <__fp_splitA+0x1a>
    15b4:	47 95       	ror	r20

000015b6 <__fp_splitA>:
    15b6:	88 0f       	add	r24, r24
    15b8:	97 fb       	bst	r25, 7
    15ba:	99 1f       	adc	r25, r25
    15bc:	61 f0       	breq	.+24     	; 0x15d6 <__fp_splitA+0x20>
    15be:	9f 3f       	cpi	r25, 0xFF	; 255
    15c0:	79 f0       	breq	.+30     	; 0x15e0 <__fp_splitA+0x2a>
    15c2:	87 95       	ror	r24
    15c4:	08 95       	ret
    15c6:	12 16       	cp	r1, r18
    15c8:	13 06       	cpc	r1, r19
    15ca:	14 06       	cpc	r1, r20
    15cc:	55 1f       	adc	r21, r21
    15ce:	f2 cf       	rjmp	.-28     	; 0x15b4 <__fp_split3+0xe>
    15d0:	46 95       	lsr	r20
    15d2:	f1 df       	rcall	.-30     	; 0x15b6 <__fp_splitA>
    15d4:	08 c0       	rjmp	.+16     	; 0x15e6 <__fp_splitA+0x30>
    15d6:	16 16       	cp	r1, r22
    15d8:	17 06       	cpc	r1, r23
    15da:	18 06       	cpc	r1, r24
    15dc:	99 1f       	adc	r25, r25
    15de:	f1 cf       	rjmp	.-30     	; 0x15c2 <__fp_splitA+0xc>
    15e0:	86 95       	lsr	r24
    15e2:	71 05       	cpc	r23, r1
    15e4:	61 05       	cpc	r22, r1
    15e6:	08 94       	sec
    15e8:	08 95       	ret

000015ea <__fp_zero>:
    15ea:	e8 94       	clt

000015ec <__fp_szero>:
    15ec:	bb 27       	eor	r27, r27
    15ee:	66 27       	eor	r22, r22
    15f0:	77 27       	eor	r23, r23
    15f2:	cb 01       	movw	r24, r22
    15f4:	97 f9       	bld	r25, 7
    15f6:	08 95       	ret

000015f8 <__mulsf3>:
    15f8:	0e 94 0f 0b 	call	0x161e	; 0x161e <__mulsf3x>
    15fc:	0c 94 c2 0a 	jmp	0x1584	; 0x1584 <__fp_round>
    1600:	0e 94 b4 0a 	call	0x1568	; 0x1568 <__fp_pscA>
    1604:	38 f0       	brcs	.+14     	; 0x1614 <__mulsf3+0x1c>
    1606:	0e 94 bb 0a 	call	0x1576	; 0x1576 <__fp_pscB>
    160a:	20 f0       	brcs	.+8      	; 0x1614 <__mulsf3+0x1c>
    160c:	95 23       	and	r25, r21
    160e:	11 f0       	breq	.+4      	; 0x1614 <__mulsf3+0x1c>
    1610:	0c 94 ab 0a 	jmp	0x1556	; 0x1556 <__fp_inf>
    1614:	0c 94 b1 0a 	jmp	0x1562	; 0x1562 <__fp_nan>
    1618:	11 24       	eor	r1, r1
    161a:	0c 94 f6 0a 	jmp	0x15ec	; 0x15ec <__fp_szero>

0000161e <__mulsf3x>:
    161e:	0e 94 d3 0a 	call	0x15a6	; 0x15a6 <__fp_split3>
    1622:	70 f3       	brcs	.-36     	; 0x1600 <__mulsf3+0x8>

00001624 <__mulsf3_pse>:
    1624:	95 9f       	mul	r25, r21
    1626:	c1 f3       	breq	.-16     	; 0x1618 <__mulsf3+0x20>
    1628:	95 0f       	add	r25, r21
    162a:	50 e0       	ldi	r21, 0x00	; 0
    162c:	55 1f       	adc	r21, r21
    162e:	62 9f       	mul	r22, r18
    1630:	f0 01       	movw	r30, r0
    1632:	72 9f       	mul	r23, r18
    1634:	bb 27       	eor	r27, r27
    1636:	f0 0d       	add	r31, r0
    1638:	b1 1d       	adc	r27, r1
    163a:	63 9f       	mul	r22, r19
    163c:	aa 27       	eor	r26, r26
    163e:	f0 0d       	add	r31, r0
    1640:	b1 1d       	adc	r27, r1
    1642:	aa 1f       	adc	r26, r26
    1644:	64 9f       	mul	r22, r20
    1646:	66 27       	eor	r22, r22
    1648:	b0 0d       	add	r27, r0
    164a:	a1 1d       	adc	r26, r1
    164c:	66 1f       	adc	r22, r22
    164e:	82 9f       	mul	r24, r18
    1650:	22 27       	eor	r18, r18
    1652:	b0 0d       	add	r27, r0
    1654:	a1 1d       	adc	r26, r1
    1656:	62 1f       	adc	r22, r18
    1658:	73 9f       	mul	r23, r19
    165a:	b0 0d       	add	r27, r0
    165c:	a1 1d       	adc	r26, r1
    165e:	62 1f       	adc	r22, r18
    1660:	83 9f       	mul	r24, r19
    1662:	a0 0d       	add	r26, r0
    1664:	61 1d       	adc	r22, r1
    1666:	22 1f       	adc	r18, r18
    1668:	74 9f       	mul	r23, r20
    166a:	33 27       	eor	r19, r19
    166c:	a0 0d       	add	r26, r0
    166e:	61 1d       	adc	r22, r1
    1670:	23 1f       	adc	r18, r19
    1672:	84 9f       	mul	r24, r20
    1674:	60 0d       	add	r22, r0
    1676:	21 1d       	adc	r18, r1
    1678:	82 2f       	mov	r24, r18
    167a:	76 2f       	mov	r23, r22
    167c:	6a 2f       	mov	r22, r26
    167e:	11 24       	eor	r1, r1
    1680:	9f 57       	subi	r25, 0x7F	; 127
    1682:	50 40       	sbci	r21, 0x00	; 0
    1684:	9a f0       	brmi	.+38     	; 0x16ac <__mulsf3_pse+0x88>
    1686:	f1 f0       	breq	.+60     	; 0x16c4 <__mulsf3_pse+0xa0>
    1688:	88 23       	and	r24, r24
    168a:	4a f0       	brmi	.+18     	; 0x169e <__mulsf3_pse+0x7a>
    168c:	ee 0f       	add	r30, r30
    168e:	ff 1f       	adc	r31, r31
    1690:	bb 1f       	adc	r27, r27
    1692:	66 1f       	adc	r22, r22
    1694:	77 1f       	adc	r23, r23
    1696:	88 1f       	adc	r24, r24
    1698:	91 50       	subi	r25, 0x01	; 1
    169a:	50 40       	sbci	r21, 0x00	; 0
    169c:	a9 f7       	brne	.-22     	; 0x1688 <__mulsf3_pse+0x64>
    169e:	9e 3f       	cpi	r25, 0xFE	; 254
    16a0:	51 05       	cpc	r21, r1
    16a2:	80 f0       	brcs	.+32     	; 0x16c4 <__mulsf3_pse+0xa0>
    16a4:	0c 94 ab 0a 	jmp	0x1556	; 0x1556 <__fp_inf>
    16a8:	0c 94 f6 0a 	jmp	0x15ec	; 0x15ec <__fp_szero>
    16ac:	5f 3f       	cpi	r21, 0xFF	; 255
    16ae:	e4 f3       	brlt	.-8      	; 0x16a8 <__mulsf3_pse+0x84>
    16b0:	98 3e       	cpi	r25, 0xE8	; 232
    16b2:	d4 f3       	brlt	.-12     	; 0x16a8 <__mulsf3_pse+0x84>
    16b4:	86 95       	lsr	r24
    16b6:	77 95       	ror	r23
    16b8:	67 95       	ror	r22
    16ba:	b7 95       	ror	r27
    16bc:	f7 95       	ror	r31
    16be:	e7 95       	ror	r30
    16c0:	9f 5f       	subi	r25, 0xFF	; 255
    16c2:	c1 f7       	brne	.-16     	; 0x16b4 <__mulsf3_pse+0x90>
    16c4:	fe 2b       	or	r31, r30
    16c6:	88 0f       	add	r24, r24
    16c8:	91 1d       	adc	r25, r1
    16ca:	96 95       	lsr	r25
    16cc:	87 95       	ror	r24
    16ce:	97 f9       	bld	r25, 7
    16d0:	08 95       	ret

000016d2 <vfprintf>:
    16d2:	a0 e1       	ldi	r26, 0x10	; 16
    16d4:	b0 e0       	ldi	r27, 0x00	; 0
    16d6:	ef e6       	ldi	r30, 0x6F	; 111
    16d8:	fb e0       	ldi	r31, 0x0B	; 11
    16da:	0c 94 45 0f 	jmp	0x1e8a	; 0x1e8a <__prologue_saves__>
    16de:	7c 01       	movw	r14, r24
    16e0:	1b 01       	movw	r2, r22
    16e2:	6a 01       	movw	r12, r20
    16e4:	fc 01       	movw	r30, r24
    16e6:	17 82       	std	Z+7, r1	; 0x07
    16e8:	16 82       	std	Z+6, r1	; 0x06
    16ea:	83 81       	ldd	r24, Z+3	; 0x03
    16ec:	81 ff       	sbrs	r24, 1
    16ee:	44 c3       	rjmp	.+1672   	; 0x1d78 <vfprintf+0x6a6>
    16f0:	9e 01       	movw	r18, r28
    16f2:	2f 5f       	subi	r18, 0xFF	; 255
    16f4:	3f 4f       	sbci	r19, 0xFF	; 255
    16f6:	39 01       	movw	r6, r18
    16f8:	f7 01       	movw	r30, r14
    16fa:	93 81       	ldd	r25, Z+3	; 0x03
    16fc:	f1 01       	movw	r30, r2
    16fe:	93 fd       	sbrc	r25, 3
    1700:	85 91       	lpm	r24, Z+
    1702:	93 ff       	sbrs	r25, 3
    1704:	81 91       	ld	r24, Z+
    1706:	1f 01       	movw	r2, r30
    1708:	88 23       	and	r24, r24
    170a:	09 f4       	brne	.+2      	; 0x170e <vfprintf+0x3c>
    170c:	31 c3       	rjmp	.+1634   	; 0x1d70 <vfprintf+0x69e>
    170e:	85 32       	cpi	r24, 0x25	; 37
    1710:	39 f4       	brne	.+14     	; 0x1720 <vfprintf+0x4e>
    1712:	93 fd       	sbrc	r25, 3
    1714:	85 91       	lpm	r24, Z+
    1716:	93 ff       	sbrs	r25, 3
    1718:	81 91       	ld	r24, Z+
    171a:	1f 01       	movw	r2, r30
    171c:	85 32       	cpi	r24, 0x25	; 37
    171e:	39 f4       	brne	.+14     	; 0x172e <vfprintf+0x5c>
    1720:	b7 01       	movw	r22, r14
    1722:	90 e0       	ldi	r25, 0x00	; 0
    1724:	0e 94 c8 11 	call	0x2390	; 0x2390 <fputc>
    1728:	56 01       	movw	r10, r12
    172a:	65 01       	movw	r12, r10
    172c:	e5 cf       	rjmp	.-54     	; 0x16f8 <vfprintf+0x26>
    172e:	10 e0       	ldi	r17, 0x00	; 0
    1730:	51 2c       	mov	r5, r1
    1732:	91 2c       	mov	r9, r1
    1734:	ff e1       	ldi	r31, 0x1F	; 31
    1736:	f9 15       	cp	r31, r9
    1738:	d8 f0       	brcs	.+54     	; 0x1770 <vfprintf+0x9e>
    173a:	8b 32       	cpi	r24, 0x2B	; 43
    173c:	79 f0       	breq	.+30     	; 0x175c <vfprintf+0x8a>
    173e:	38 f4       	brcc	.+14     	; 0x174e <vfprintf+0x7c>
    1740:	80 32       	cpi	r24, 0x20	; 32
    1742:	79 f0       	breq	.+30     	; 0x1762 <vfprintf+0x90>
    1744:	83 32       	cpi	r24, 0x23	; 35
    1746:	a1 f4       	brne	.+40     	; 0x1770 <vfprintf+0x9e>
    1748:	f9 2d       	mov	r31, r9
    174a:	f0 61       	ori	r31, 0x10	; 16
    174c:	2e c0       	rjmp	.+92     	; 0x17aa <vfprintf+0xd8>
    174e:	8d 32       	cpi	r24, 0x2D	; 45
    1750:	61 f0       	breq	.+24     	; 0x176a <vfprintf+0x98>
    1752:	80 33       	cpi	r24, 0x30	; 48
    1754:	69 f4       	brne	.+26     	; 0x1770 <vfprintf+0x9e>
    1756:	29 2d       	mov	r18, r9
    1758:	21 60       	ori	r18, 0x01	; 1
    175a:	2d c0       	rjmp	.+90     	; 0x17b6 <vfprintf+0xe4>
    175c:	39 2d       	mov	r19, r9
    175e:	32 60       	ori	r19, 0x02	; 2
    1760:	93 2e       	mov	r9, r19
    1762:	89 2d       	mov	r24, r9
    1764:	84 60       	ori	r24, 0x04	; 4
    1766:	98 2e       	mov	r9, r24
    1768:	2a c0       	rjmp	.+84     	; 0x17be <vfprintf+0xec>
    176a:	e9 2d       	mov	r30, r9
    176c:	e8 60       	ori	r30, 0x08	; 8
    176e:	15 c0       	rjmp	.+42     	; 0x179a <vfprintf+0xc8>
    1770:	97 fc       	sbrc	r9, 7
    1772:	2d c0       	rjmp	.+90     	; 0x17ce <vfprintf+0xfc>
    1774:	20 ed       	ldi	r18, 0xD0	; 208
    1776:	28 0f       	add	r18, r24
    1778:	2a 30       	cpi	r18, 0x0A	; 10
    177a:	88 f4       	brcc	.+34     	; 0x179e <vfprintf+0xcc>
    177c:	96 fe       	sbrs	r9, 6
    177e:	06 c0       	rjmp	.+12     	; 0x178c <vfprintf+0xba>
    1780:	3a e0       	ldi	r19, 0x0A	; 10
    1782:	13 9f       	mul	r17, r19
    1784:	20 0d       	add	r18, r0
    1786:	11 24       	eor	r1, r1
    1788:	12 2f       	mov	r17, r18
    178a:	19 c0       	rjmp	.+50     	; 0x17be <vfprintf+0xec>
    178c:	8a e0       	ldi	r24, 0x0A	; 10
    178e:	58 9e       	mul	r5, r24
    1790:	20 0d       	add	r18, r0
    1792:	11 24       	eor	r1, r1
    1794:	52 2e       	mov	r5, r18
    1796:	e9 2d       	mov	r30, r9
    1798:	e0 62       	ori	r30, 0x20	; 32
    179a:	9e 2e       	mov	r9, r30
    179c:	10 c0       	rjmp	.+32     	; 0x17be <vfprintf+0xec>
    179e:	8e 32       	cpi	r24, 0x2E	; 46
    17a0:	31 f4       	brne	.+12     	; 0x17ae <vfprintf+0xdc>
    17a2:	96 fc       	sbrc	r9, 6
    17a4:	e5 c2       	rjmp	.+1482   	; 0x1d70 <vfprintf+0x69e>
    17a6:	f9 2d       	mov	r31, r9
    17a8:	f0 64       	ori	r31, 0x40	; 64
    17aa:	9f 2e       	mov	r9, r31
    17ac:	08 c0       	rjmp	.+16     	; 0x17be <vfprintf+0xec>
    17ae:	8c 36       	cpi	r24, 0x6C	; 108
    17b0:	21 f4       	brne	.+8      	; 0x17ba <vfprintf+0xe8>
    17b2:	29 2d       	mov	r18, r9
    17b4:	20 68       	ori	r18, 0x80	; 128
    17b6:	92 2e       	mov	r9, r18
    17b8:	02 c0       	rjmp	.+4      	; 0x17be <vfprintf+0xec>
    17ba:	88 36       	cpi	r24, 0x68	; 104
    17bc:	41 f4       	brne	.+16     	; 0x17ce <vfprintf+0xfc>
    17be:	f1 01       	movw	r30, r2
    17c0:	93 fd       	sbrc	r25, 3
    17c2:	85 91       	lpm	r24, Z+
    17c4:	93 ff       	sbrs	r25, 3
    17c6:	81 91       	ld	r24, Z+
    17c8:	1f 01       	movw	r2, r30
    17ca:	81 11       	cpse	r24, r1
    17cc:	b3 cf       	rjmp	.-154    	; 0x1734 <vfprintf+0x62>
    17ce:	9b eb       	ldi	r25, 0xBB	; 187
    17d0:	98 0f       	add	r25, r24
    17d2:	93 30       	cpi	r25, 0x03	; 3
    17d4:	20 f4       	brcc	.+8      	; 0x17de <vfprintf+0x10c>
    17d6:	99 2d       	mov	r25, r9
    17d8:	90 61       	ori	r25, 0x10	; 16
    17da:	80 5e       	subi	r24, 0xE0	; 224
    17dc:	07 c0       	rjmp	.+14     	; 0x17ec <vfprintf+0x11a>
    17de:	9b e9       	ldi	r25, 0x9B	; 155
    17e0:	98 0f       	add	r25, r24
    17e2:	93 30       	cpi	r25, 0x03	; 3
    17e4:	08 f0       	brcs	.+2      	; 0x17e8 <vfprintf+0x116>
    17e6:	66 c1       	rjmp	.+716    	; 0x1ab4 <vfprintf+0x3e2>
    17e8:	99 2d       	mov	r25, r9
    17ea:	9f 7e       	andi	r25, 0xEF	; 239
    17ec:	96 ff       	sbrs	r25, 6
    17ee:	16 e0       	ldi	r17, 0x06	; 6
    17f0:	9f 73       	andi	r25, 0x3F	; 63
    17f2:	99 2e       	mov	r9, r25
    17f4:	85 36       	cpi	r24, 0x65	; 101
    17f6:	19 f4       	brne	.+6      	; 0x17fe <vfprintf+0x12c>
    17f8:	90 64       	ori	r25, 0x40	; 64
    17fa:	99 2e       	mov	r9, r25
    17fc:	08 c0       	rjmp	.+16     	; 0x180e <vfprintf+0x13c>
    17fe:	86 36       	cpi	r24, 0x66	; 102
    1800:	21 f4       	brne	.+8      	; 0x180a <vfprintf+0x138>
    1802:	39 2f       	mov	r19, r25
    1804:	30 68       	ori	r19, 0x80	; 128
    1806:	93 2e       	mov	r9, r19
    1808:	02 c0       	rjmp	.+4      	; 0x180e <vfprintf+0x13c>
    180a:	11 11       	cpse	r17, r1
    180c:	11 50       	subi	r17, 0x01	; 1
    180e:	97 fe       	sbrs	r9, 7
    1810:	07 c0       	rjmp	.+14     	; 0x1820 <vfprintf+0x14e>
    1812:	1c 33       	cpi	r17, 0x3C	; 60
    1814:	50 f4       	brcc	.+20     	; 0x182a <vfprintf+0x158>
    1816:	44 24       	eor	r4, r4
    1818:	43 94       	inc	r4
    181a:	41 0e       	add	r4, r17
    181c:	27 e0       	ldi	r18, 0x07	; 7
    181e:	0b c0       	rjmp	.+22     	; 0x1836 <vfprintf+0x164>
    1820:	18 30       	cpi	r17, 0x08	; 8
    1822:	38 f0       	brcs	.+14     	; 0x1832 <vfprintf+0x160>
    1824:	27 e0       	ldi	r18, 0x07	; 7
    1826:	17 e0       	ldi	r17, 0x07	; 7
    1828:	05 c0       	rjmp	.+10     	; 0x1834 <vfprintf+0x162>
    182a:	27 e0       	ldi	r18, 0x07	; 7
    182c:	9c e3       	ldi	r25, 0x3C	; 60
    182e:	49 2e       	mov	r4, r25
    1830:	02 c0       	rjmp	.+4      	; 0x1836 <vfprintf+0x164>
    1832:	21 2f       	mov	r18, r17
    1834:	41 2c       	mov	r4, r1
    1836:	56 01       	movw	r10, r12
    1838:	84 e0       	ldi	r24, 0x04	; 4
    183a:	a8 0e       	add	r10, r24
    183c:	b1 1c       	adc	r11, r1
    183e:	f6 01       	movw	r30, r12
    1840:	60 81       	ld	r22, Z
    1842:	71 81       	ldd	r23, Z+1	; 0x01
    1844:	82 81       	ldd	r24, Z+2	; 0x02
    1846:	93 81       	ldd	r25, Z+3	; 0x03
    1848:	04 2d       	mov	r16, r4
    184a:	a3 01       	movw	r20, r6
    184c:	0e 94 c4 10 	call	0x2188	; 0x2188 <__ftoa_engine>
    1850:	6c 01       	movw	r12, r24
    1852:	f9 81       	ldd	r31, Y+1	; 0x01
    1854:	fc 87       	std	Y+12, r31	; 0x0c
    1856:	f0 ff       	sbrs	r31, 0
    1858:	02 c0       	rjmp	.+4      	; 0x185e <vfprintf+0x18c>
    185a:	f3 ff       	sbrs	r31, 3
    185c:	06 c0       	rjmp	.+12     	; 0x186a <vfprintf+0x198>
    185e:	91 fc       	sbrc	r9, 1
    1860:	06 c0       	rjmp	.+12     	; 0x186e <vfprintf+0x19c>
    1862:	92 fe       	sbrs	r9, 2
    1864:	06 c0       	rjmp	.+12     	; 0x1872 <vfprintf+0x1a0>
    1866:	00 e2       	ldi	r16, 0x20	; 32
    1868:	05 c0       	rjmp	.+10     	; 0x1874 <vfprintf+0x1a2>
    186a:	0d e2       	ldi	r16, 0x2D	; 45
    186c:	03 c0       	rjmp	.+6      	; 0x1874 <vfprintf+0x1a2>
    186e:	0b e2       	ldi	r16, 0x2B	; 43
    1870:	01 c0       	rjmp	.+2      	; 0x1874 <vfprintf+0x1a2>
    1872:	00 e0       	ldi	r16, 0x00	; 0
    1874:	8c 85       	ldd	r24, Y+12	; 0x0c
    1876:	8c 70       	andi	r24, 0x0C	; 12
    1878:	19 f0       	breq	.+6      	; 0x1880 <vfprintf+0x1ae>
    187a:	01 11       	cpse	r16, r1
    187c:	5a c2       	rjmp	.+1204   	; 0x1d32 <vfprintf+0x660>
    187e:	9b c2       	rjmp	.+1334   	; 0x1db6 <vfprintf+0x6e4>
    1880:	97 fe       	sbrs	r9, 7
    1882:	10 c0       	rjmp	.+32     	; 0x18a4 <vfprintf+0x1d2>
    1884:	4c 0c       	add	r4, r12
    1886:	fc 85       	ldd	r31, Y+12	; 0x0c
    1888:	f4 ff       	sbrs	r31, 4
    188a:	04 c0       	rjmp	.+8      	; 0x1894 <vfprintf+0x1c2>
    188c:	8a 81       	ldd	r24, Y+2	; 0x02
    188e:	81 33       	cpi	r24, 0x31	; 49
    1890:	09 f4       	brne	.+2      	; 0x1894 <vfprintf+0x1c2>
    1892:	4a 94       	dec	r4
    1894:	14 14       	cp	r1, r4
    1896:	74 f5       	brge	.+92     	; 0x18f4 <vfprintf+0x222>
    1898:	28 e0       	ldi	r18, 0x08	; 8
    189a:	24 15       	cp	r18, r4
    189c:	78 f5       	brcc	.+94     	; 0x18fc <vfprintf+0x22a>
    189e:	88 e0       	ldi	r24, 0x08	; 8
    18a0:	48 2e       	mov	r4, r24
    18a2:	2c c0       	rjmp	.+88     	; 0x18fc <vfprintf+0x22a>
    18a4:	96 fc       	sbrc	r9, 6
    18a6:	2a c0       	rjmp	.+84     	; 0x18fc <vfprintf+0x22a>
    18a8:	81 2f       	mov	r24, r17
    18aa:	90 e0       	ldi	r25, 0x00	; 0
    18ac:	8c 15       	cp	r24, r12
    18ae:	9d 05       	cpc	r25, r13
    18b0:	9c f0       	brlt	.+38     	; 0x18d8 <vfprintf+0x206>
    18b2:	3c ef       	ldi	r19, 0xFC	; 252
    18b4:	c3 16       	cp	r12, r19
    18b6:	3f ef       	ldi	r19, 0xFF	; 255
    18b8:	d3 06       	cpc	r13, r19
    18ba:	74 f0       	brlt	.+28     	; 0x18d8 <vfprintf+0x206>
    18bc:	89 2d       	mov	r24, r9
    18be:	80 68       	ori	r24, 0x80	; 128
    18c0:	98 2e       	mov	r9, r24
    18c2:	0a c0       	rjmp	.+20     	; 0x18d8 <vfprintf+0x206>
    18c4:	e2 e0       	ldi	r30, 0x02	; 2
    18c6:	f0 e0       	ldi	r31, 0x00	; 0
    18c8:	ec 0f       	add	r30, r28
    18ca:	fd 1f       	adc	r31, r29
    18cc:	e1 0f       	add	r30, r17
    18ce:	f1 1d       	adc	r31, r1
    18d0:	80 81       	ld	r24, Z
    18d2:	80 33       	cpi	r24, 0x30	; 48
    18d4:	19 f4       	brne	.+6      	; 0x18dc <vfprintf+0x20a>
    18d6:	11 50       	subi	r17, 0x01	; 1
    18d8:	11 11       	cpse	r17, r1
    18da:	f4 cf       	rjmp	.-24     	; 0x18c4 <vfprintf+0x1f2>
    18dc:	97 fe       	sbrs	r9, 7
    18de:	0e c0       	rjmp	.+28     	; 0x18fc <vfprintf+0x22a>
    18e0:	44 24       	eor	r4, r4
    18e2:	43 94       	inc	r4
    18e4:	41 0e       	add	r4, r17
    18e6:	81 2f       	mov	r24, r17
    18e8:	90 e0       	ldi	r25, 0x00	; 0
    18ea:	c8 16       	cp	r12, r24
    18ec:	d9 06       	cpc	r13, r25
    18ee:	2c f4       	brge	.+10     	; 0x18fa <vfprintf+0x228>
    18f0:	1c 19       	sub	r17, r12
    18f2:	04 c0       	rjmp	.+8      	; 0x18fc <vfprintf+0x22a>
    18f4:	44 24       	eor	r4, r4
    18f6:	43 94       	inc	r4
    18f8:	01 c0       	rjmp	.+2      	; 0x18fc <vfprintf+0x22a>
    18fa:	10 e0       	ldi	r17, 0x00	; 0
    18fc:	97 fe       	sbrs	r9, 7
    18fe:	06 c0       	rjmp	.+12     	; 0x190c <vfprintf+0x23a>
    1900:	1c 14       	cp	r1, r12
    1902:	1d 04       	cpc	r1, r13
    1904:	34 f4       	brge	.+12     	; 0x1912 <vfprintf+0x240>
    1906:	c6 01       	movw	r24, r12
    1908:	01 96       	adiw	r24, 0x01	; 1
    190a:	05 c0       	rjmp	.+10     	; 0x1916 <vfprintf+0x244>
    190c:	85 e0       	ldi	r24, 0x05	; 5
    190e:	90 e0       	ldi	r25, 0x00	; 0
    1910:	02 c0       	rjmp	.+4      	; 0x1916 <vfprintf+0x244>
    1912:	81 e0       	ldi	r24, 0x01	; 1
    1914:	90 e0       	ldi	r25, 0x00	; 0
    1916:	01 11       	cpse	r16, r1
    1918:	01 96       	adiw	r24, 0x01	; 1
    191a:	11 23       	and	r17, r17
    191c:	31 f0       	breq	.+12     	; 0x192a <vfprintf+0x258>
    191e:	21 2f       	mov	r18, r17
    1920:	30 e0       	ldi	r19, 0x00	; 0
    1922:	2f 5f       	subi	r18, 0xFF	; 255
    1924:	3f 4f       	sbci	r19, 0xFF	; 255
    1926:	82 0f       	add	r24, r18
    1928:	93 1f       	adc	r25, r19
    192a:	25 2d       	mov	r18, r5
    192c:	30 e0       	ldi	r19, 0x00	; 0
    192e:	82 17       	cp	r24, r18
    1930:	93 07       	cpc	r25, r19
    1932:	14 f4       	brge	.+4      	; 0x1938 <vfprintf+0x266>
    1934:	58 1a       	sub	r5, r24
    1936:	01 c0       	rjmp	.+2      	; 0x193a <vfprintf+0x268>
    1938:	51 2c       	mov	r5, r1
    193a:	89 2d       	mov	r24, r9
    193c:	89 70       	andi	r24, 0x09	; 9
    193e:	49 f4       	brne	.+18     	; 0x1952 <vfprintf+0x280>
    1940:	55 20       	and	r5, r5
    1942:	39 f0       	breq	.+14     	; 0x1952 <vfprintf+0x280>
    1944:	b7 01       	movw	r22, r14
    1946:	80 e2       	ldi	r24, 0x20	; 32
    1948:	90 e0       	ldi	r25, 0x00	; 0
    194a:	0e 94 c8 11 	call	0x2390	; 0x2390 <fputc>
    194e:	5a 94       	dec	r5
    1950:	f7 cf       	rjmp	.-18     	; 0x1940 <vfprintf+0x26e>
    1952:	00 23       	and	r16, r16
    1954:	29 f0       	breq	.+10     	; 0x1960 <vfprintf+0x28e>
    1956:	b7 01       	movw	r22, r14
    1958:	80 2f       	mov	r24, r16
    195a:	90 e0       	ldi	r25, 0x00	; 0
    195c:	0e 94 c8 11 	call	0x2390	; 0x2390 <fputc>
    1960:	93 fc       	sbrc	r9, 3
    1962:	09 c0       	rjmp	.+18     	; 0x1976 <vfprintf+0x2a4>
    1964:	55 20       	and	r5, r5
    1966:	39 f0       	breq	.+14     	; 0x1976 <vfprintf+0x2a4>
    1968:	b7 01       	movw	r22, r14
    196a:	80 e3       	ldi	r24, 0x30	; 48
    196c:	90 e0       	ldi	r25, 0x00	; 0
    196e:	0e 94 c8 11 	call	0x2390	; 0x2390 <fputc>
    1972:	5a 94       	dec	r5
    1974:	f7 cf       	rjmp	.-18     	; 0x1964 <vfprintf+0x292>
    1976:	97 fe       	sbrs	r9, 7
    1978:	4c c0       	rjmp	.+152    	; 0x1a12 <vfprintf+0x340>
    197a:	46 01       	movw	r8, r12
    197c:	d7 fe       	sbrs	r13, 7
    197e:	02 c0       	rjmp	.+4      	; 0x1984 <vfprintf+0x2b2>
    1980:	81 2c       	mov	r8, r1
    1982:	91 2c       	mov	r9, r1
    1984:	c6 01       	movw	r24, r12
    1986:	88 19       	sub	r24, r8
    1988:	99 09       	sbc	r25, r9
    198a:	f3 01       	movw	r30, r6
    198c:	e8 0f       	add	r30, r24
    198e:	f9 1f       	adc	r31, r25
    1990:	fe 87       	std	Y+14, r31	; 0x0e
    1992:	ed 87       	std	Y+13, r30	; 0x0d
    1994:	96 01       	movw	r18, r12
    1996:	24 19       	sub	r18, r4
    1998:	31 09       	sbc	r19, r1
    199a:	38 8b       	std	Y+16, r19	; 0x10
    199c:	2f 87       	std	Y+15, r18	; 0x0f
    199e:	01 2f       	mov	r16, r17
    19a0:	10 e0       	ldi	r17, 0x00	; 0
    19a2:	11 95       	neg	r17
    19a4:	01 95       	neg	r16
    19a6:	11 09       	sbc	r17, r1
    19a8:	3f ef       	ldi	r19, 0xFF	; 255
    19aa:	83 16       	cp	r8, r19
    19ac:	93 06       	cpc	r9, r19
    19ae:	29 f4       	brne	.+10     	; 0x19ba <vfprintf+0x2e8>
    19b0:	b7 01       	movw	r22, r14
    19b2:	8e e2       	ldi	r24, 0x2E	; 46
    19b4:	90 e0       	ldi	r25, 0x00	; 0
    19b6:	0e 94 c8 11 	call	0x2390	; 0x2390 <fputc>
    19ba:	c8 14       	cp	r12, r8
    19bc:	d9 04       	cpc	r13, r9
    19be:	4c f0       	brlt	.+18     	; 0x19d2 <vfprintf+0x300>
    19c0:	8f 85       	ldd	r24, Y+15	; 0x0f
    19c2:	98 89       	ldd	r25, Y+16	; 0x10
    19c4:	88 15       	cp	r24, r8
    19c6:	99 05       	cpc	r25, r9
    19c8:	24 f4       	brge	.+8      	; 0x19d2 <vfprintf+0x300>
    19ca:	ed 85       	ldd	r30, Y+13	; 0x0d
    19cc:	fe 85       	ldd	r31, Y+14	; 0x0e
    19ce:	81 81       	ldd	r24, Z+1	; 0x01
    19d0:	01 c0       	rjmp	.+2      	; 0x19d4 <vfprintf+0x302>
    19d2:	80 e3       	ldi	r24, 0x30	; 48
    19d4:	f1 e0       	ldi	r31, 0x01	; 1
    19d6:	8f 1a       	sub	r8, r31
    19d8:	91 08       	sbc	r9, r1
    19da:	2d 85       	ldd	r18, Y+13	; 0x0d
    19dc:	3e 85       	ldd	r19, Y+14	; 0x0e
    19de:	2f 5f       	subi	r18, 0xFF	; 255
    19e0:	3f 4f       	sbci	r19, 0xFF	; 255
    19e2:	3e 87       	std	Y+14, r19	; 0x0e
    19e4:	2d 87       	std	Y+13, r18	; 0x0d
    19e6:	80 16       	cp	r8, r16
    19e8:	91 06       	cpc	r9, r17
    19ea:	2c f0       	brlt	.+10     	; 0x19f6 <vfprintf+0x324>
    19ec:	b7 01       	movw	r22, r14
    19ee:	90 e0       	ldi	r25, 0x00	; 0
    19f0:	0e 94 c8 11 	call	0x2390	; 0x2390 <fputc>
    19f4:	d9 cf       	rjmp	.-78     	; 0x19a8 <vfprintf+0x2d6>
    19f6:	c8 14       	cp	r12, r8
    19f8:	d9 04       	cpc	r13, r9
    19fa:	41 f4       	brne	.+16     	; 0x1a0c <vfprintf+0x33a>
    19fc:	9a 81       	ldd	r25, Y+2	; 0x02
    19fe:	96 33       	cpi	r25, 0x36	; 54
    1a00:	20 f4       	brcc	.+8      	; 0x1a0a <vfprintf+0x338>
    1a02:	95 33       	cpi	r25, 0x35	; 53
    1a04:	19 f4       	brne	.+6      	; 0x1a0c <vfprintf+0x33a>
    1a06:	3c 85       	ldd	r19, Y+12	; 0x0c
    1a08:	34 ff       	sbrs	r19, 4
    1a0a:	81 e3       	ldi	r24, 0x31	; 49
    1a0c:	b7 01       	movw	r22, r14
    1a0e:	90 e0       	ldi	r25, 0x00	; 0
    1a10:	4e c0       	rjmp	.+156    	; 0x1aae <vfprintf+0x3dc>
    1a12:	8a 81       	ldd	r24, Y+2	; 0x02
    1a14:	81 33       	cpi	r24, 0x31	; 49
    1a16:	19 f0       	breq	.+6      	; 0x1a1e <vfprintf+0x34c>
    1a18:	9c 85       	ldd	r25, Y+12	; 0x0c
    1a1a:	9f 7e       	andi	r25, 0xEF	; 239
    1a1c:	9c 87       	std	Y+12, r25	; 0x0c
    1a1e:	b7 01       	movw	r22, r14
    1a20:	90 e0       	ldi	r25, 0x00	; 0
    1a22:	0e 94 c8 11 	call	0x2390	; 0x2390 <fputc>
    1a26:	11 11       	cpse	r17, r1
    1a28:	05 c0       	rjmp	.+10     	; 0x1a34 <vfprintf+0x362>
    1a2a:	94 fc       	sbrc	r9, 4
    1a2c:	18 c0       	rjmp	.+48     	; 0x1a5e <vfprintf+0x38c>
    1a2e:	85 e6       	ldi	r24, 0x65	; 101
    1a30:	90 e0       	ldi	r25, 0x00	; 0
    1a32:	17 c0       	rjmp	.+46     	; 0x1a62 <vfprintf+0x390>
    1a34:	b7 01       	movw	r22, r14
    1a36:	8e e2       	ldi	r24, 0x2E	; 46
    1a38:	90 e0       	ldi	r25, 0x00	; 0
    1a3a:	0e 94 c8 11 	call	0x2390	; 0x2390 <fputc>
    1a3e:	1e 5f       	subi	r17, 0xFE	; 254
    1a40:	82 e0       	ldi	r24, 0x02	; 2
    1a42:	01 e0       	ldi	r16, 0x01	; 1
    1a44:	08 0f       	add	r16, r24
    1a46:	f3 01       	movw	r30, r6
    1a48:	e8 0f       	add	r30, r24
    1a4a:	f1 1d       	adc	r31, r1
    1a4c:	80 81       	ld	r24, Z
    1a4e:	b7 01       	movw	r22, r14
    1a50:	90 e0       	ldi	r25, 0x00	; 0
    1a52:	0e 94 c8 11 	call	0x2390	; 0x2390 <fputc>
    1a56:	80 2f       	mov	r24, r16
    1a58:	01 13       	cpse	r16, r17
    1a5a:	f3 cf       	rjmp	.-26     	; 0x1a42 <vfprintf+0x370>
    1a5c:	e6 cf       	rjmp	.-52     	; 0x1a2a <vfprintf+0x358>
    1a5e:	85 e4       	ldi	r24, 0x45	; 69
    1a60:	90 e0       	ldi	r25, 0x00	; 0
    1a62:	b7 01       	movw	r22, r14
    1a64:	0e 94 c8 11 	call	0x2390	; 0x2390 <fputc>
    1a68:	d7 fc       	sbrc	r13, 7
    1a6a:	06 c0       	rjmp	.+12     	; 0x1a78 <vfprintf+0x3a6>
    1a6c:	c1 14       	cp	r12, r1
    1a6e:	d1 04       	cpc	r13, r1
    1a70:	41 f4       	brne	.+16     	; 0x1a82 <vfprintf+0x3b0>
    1a72:	ec 85       	ldd	r30, Y+12	; 0x0c
    1a74:	e4 ff       	sbrs	r30, 4
    1a76:	05 c0       	rjmp	.+10     	; 0x1a82 <vfprintf+0x3b0>
    1a78:	d1 94       	neg	r13
    1a7a:	c1 94       	neg	r12
    1a7c:	d1 08       	sbc	r13, r1
    1a7e:	8d e2       	ldi	r24, 0x2D	; 45
    1a80:	01 c0       	rjmp	.+2      	; 0x1a84 <vfprintf+0x3b2>
    1a82:	8b e2       	ldi	r24, 0x2B	; 43
    1a84:	b7 01       	movw	r22, r14
    1a86:	90 e0       	ldi	r25, 0x00	; 0
    1a88:	0e 94 c8 11 	call	0x2390	; 0x2390 <fputc>
    1a8c:	80 e3       	ldi	r24, 0x30	; 48
    1a8e:	2a e0       	ldi	r18, 0x0A	; 10
    1a90:	c2 16       	cp	r12, r18
    1a92:	d1 04       	cpc	r13, r1
    1a94:	2c f0       	brlt	.+10     	; 0x1aa0 <vfprintf+0x3ce>
    1a96:	8f 5f       	subi	r24, 0xFF	; 255
    1a98:	fa e0       	ldi	r31, 0x0A	; 10
    1a9a:	cf 1a       	sub	r12, r31
    1a9c:	d1 08       	sbc	r13, r1
    1a9e:	f7 cf       	rjmp	.-18     	; 0x1a8e <vfprintf+0x3bc>
    1aa0:	b7 01       	movw	r22, r14
    1aa2:	90 e0       	ldi	r25, 0x00	; 0
    1aa4:	0e 94 c8 11 	call	0x2390	; 0x2390 <fputc>
    1aa8:	b7 01       	movw	r22, r14
    1aaa:	c6 01       	movw	r24, r12
    1aac:	c0 96       	adiw	r24, 0x30	; 48
    1aae:	0e 94 c8 11 	call	0x2390	; 0x2390 <fputc>
    1ab2:	54 c1       	rjmp	.+680    	; 0x1d5c <vfprintf+0x68a>
    1ab4:	83 36       	cpi	r24, 0x63	; 99
    1ab6:	31 f0       	breq	.+12     	; 0x1ac4 <vfprintf+0x3f2>
    1ab8:	83 37       	cpi	r24, 0x73	; 115
    1aba:	79 f0       	breq	.+30     	; 0x1ada <vfprintf+0x408>
    1abc:	83 35       	cpi	r24, 0x53	; 83
    1abe:	09 f0       	breq	.+2      	; 0x1ac2 <vfprintf+0x3f0>
    1ac0:	56 c0       	rjmp	.+172    	; 0x1b6e <vfprintf+0x49c>
    1ac2:	20 c0       	rjmp	.+64     	; 0x1b04 <vfprintf+0x432>
    1ac4:	56 01       	movw	r10, r12
    1ac6:	32 e0       	ldi	r19, 0x02	; 2
    1ac8:	a3 0e       	add	r10, r19
    1aca:	b1 1c       	adc	r11, r1
    1acc:	f6 01       	movw	r30, r12
    1ace:	80 81       	ld	r24, Z
    1ad0:	89 83       	std	Y+1, r24	; 0x01
    1ad2:	01 e0       	ldi	r16, 0x01	; 1
    1ad4:	10 e0       	ldi	r17, 0x00	; 0
    1ad6:	63 01       	movw	r12, r6
    1ad8:	12 c0       	rjmp	.+36     	; 0x1afe <vfprintf+0x42c>
    1ada:	56 01       	movw	r10, r12
    1adc:	f2 e0       	ldi	r31, 0x02	; 2
    1ade:	af 0e       	add	r10, r31
    1ae0:	b1 1c       	adc	r11, r1
    1ae2:	f6 01       	movw	r30, r12
    1ae4:	c0 80       	ld	r12, Z
    1ae6:	d1 80       	ldd	r13, Z+1	; 0x01
    1ae8:	96 fe       	sbrs	r9, 6
    1aea:	03 c0       	rjmp	.+6      	; 0x1af2 <vfprintf+0x420>
    1aec:	61 2f       	mov	r22, r17
    1aee:	70 e0       	ldi	r23, 0x00	; 0
    1af0:	02 c0       	rjmp	.+4      	; 0x1af6 <vfprintf+0x424>
    1af2:	6f ef       	ldi	r22, 0xFF	; 255
    1af4:	7f ef       	ldi	r23, 0xFF	; 255
    1af6:	c6 01       	movw	r24, r12
    1af8:	0e 94 b5 11 	call	0x236a	; 0x236a <strnlen>
    1afc:	8c 01       	movw	r16, r24
    1afe:	f9 2d       	mov	r31, r9
    1b00:	ff 77       	andi	r31, 0x7F	; 127
    1b02:	14 c0       	rjmp	.+40     	; 0x1b2c <vfprintf+0x45a>
    1b04:	56 01       	movw	r10, r12
    1b06:	22 e0       	ldi	r18, 0x02	; 2
    1b08:	a2 0e       	add	r10, r18
    1b0a:	b1 1c       	adc	r11, r1
    1b0c:	f6 01       	movw	r30, r12
    1b0e:	c0 80       	ld	r12, Z
    1b10:	d1 80       	ldd	r13, Z+1	; 0x01
    1b12:	96 fe       	sbrs	r9, 6
    1b14:	03 c0       	rjmp	.+6      	; 0x1b1c <vfprintf+0x44a>
    1b16:	61 2f       	mov	r22, r17
    1b18:	70 e0       	ldi	r23, 0x00	; 0
    1b1a:	02 c0       	rjmp	.+4      	; 0x1b20 <vfprintf+0x44e>
    1b1c:	6f ef       	ldi	r22, 0xFF	; 255
    1b1e:	7f ef       	ldi	r23, 0xFF	; 255
    1b20:	c6 01       	movw	r24, r12
    1b22:	0e 94 9c 11 	call	0x2338	; 0x2338 <strnlen_P>
    1b26:	8c 01       	movw	r16, r24
    1b28:	f9 2d       	mov	r31, r9
    1b2a:	f0 68       	ori	r31, 0x80	; 128
    1b2c:	9f 2e       	mov	r9, r31
    1b2e:	f3 fd       	sbrc	r31, 3
    1b30:	1a c0       	rjmp	.+52     	; 0x1b66 <vfprintf+0x494>
    1b32:	85 2d       	mov	r24, r5
    1b34:	90 e0       	ldi	r25, 0x00	; 0
    1b36:	08 17       	cp	r16, r24
    1b38:	19 07       	cpc	r17, r25
    1b3a:	a8 f4       	brcc	.+42     	; 0x1b66 <vfprintf+0x494>
    1b3c:	b7 01       	movw	r22, r14
    1b3e:	80 e2       	ldi	r24, 0x20	; 32
    1b40:	90 e0       	ldi	r25, 0x00	; 0
    1b42:	0e 94 c8 11 	call	0x2390	; 0x2390 <fputc>
    1b46:	5a 94       	dec	r5
    1b48:	f4 cf       	rjmp	.-24     	; 0x1b32 <vfprintf+0x460>
    1b4a:	f6 01       	movw	r30, r12
    1b4c:	97 fc       	sbrc	r9, 7
    1b4e:	85 91       	lpm	r24, Z+
    1b50:	97 fe       	sbrs	r9, 7
    1b52:	81 91       	ld	r24, Z+
    1b54:	6f 01       	movw	r12, r30
    1b56:	b7 01       	movw	r22, r14
    1b58:	90 e0       	ldi	r25, 0x00	; 0
    1b5a:	0e 94 c8 11 	call	0x2390	; 0x2390 <fputc>
    1b5e:	51 10       	cpse	r5, r1
    1b60:	5a 94       	dec	r5
    1b62:	01 50       	subi	r16, 0x01	; 1
    1b64:	11 09       	sbc	r17, r1
    1b66:	01 15       	cp	r16, r1
    1b68:	11 05       	cpc	r17, r1
    1b6a:	79 f7       	brne	.-34     	; 0x1b4a <vfprintf+0x478>
    1b6c:	f7 c0       	rjmp	.+494    	; 0x1d5c <vfprintf+0x68a>
    1b6e:	84 36       	cpi	r24, 0x64	; 100
    1b70:	11 f0       	breq	.+4      	; 0x1b76 <vfprintf+0x4a4>
    1b72:	89 36       	cpi	r24, 0x69	; 105
    1b74:	61 f5       	brne	.+88     	; 0x1bce <vfprintf+0x4fc>
    1b76:	56 01       	movw	r10, r12
    1b78:	97 fe       	sbrs	r9, 7
    1b7a:	09 c0       	rjmp	.+18     	; 0x1b8e <vfprintf+0x4bc>
    1b7c:	24 e0       	ldi	r18, 0x04	; 4
    1b7e:	a2 0e       	add	r10, r18
    1b80:	b1 1c       	adc	r11, r1
    1b82:	f6 01       	movw	r30, r12
    1b84:	60 81       	ld	r22, Z
    1b86:	71 81       	ldd	r23, Z+1	; 0x01
    1b88:	82 81       	ldd	r24, Z+2	; 0x02
    1b8a:	93 81       	ldd	r25, Z+3	; 0x03
    1b8c:	0a c0       	rjmp	.+20     	; 0x1ba2 <vfprintf+0x4d0>
    1b8e:	f2 e0       	ldi	r31, 0x02	; 2
    1b90:	af 0e       	add	r10, r31
    1b92:	b1 1c       	adc	r11, r1
    1b94:	f6 01       	movw	r30, r12
    1b96:	60 81       	ld	r22, Z
    1b98:	71 81       	ldd	r23, Z+1	; 0x01
    1b9a:	07 2e       	mov	r0, r23
    1b9c:	00 0c       	add	r0, r0
    1b9e:	88 0b       	sbc	r24, r24
    1ba0:	99 0b       	sbc	r25, r25
    1ba2:	f9 2d       	mov	r31, r9
    1ba4:	ff 76       	andi	r31, 0x6F	; 111
    1ba6:	9f 2e       	mov	r9, r31
    1ba8:	97 ff       	sbrs	r25, 7
    1baa:	09 c0       	rjmp	.+18     	; 0x1bbe <vfprintf+0x4ec>
    1bac:	90 95       	com	r25
    1bae:	80 95       	com	r24
    1bb0:	70 95       	com	r23
    1bb2:	61 95       	neg	r22
    1bb4:	7f 4f       	sbci	r23, 0xFF	; 255
    1bb6:	8f 4f       	sbci	r24, 0xFF	; 255
    1bb8:	9f 4f       	sbci	r25, 0xFF	; 255
    1bba:	f0 68       	ori	r31, 0x80	; 128
    1bbc:	9f 2e       	mov	r9, r31
    1bbe:	2a e0       	ldi	r18, 0x0A	; 10
    1bc0:	30 e0       	ldi	r19, 0x00	; 0
    1bc2:	a3 01       	movw	r20, r6
    1bc4:	0e 94 6c 12 	call	0x24d8	; 0x24d8 <__ultoa_invert>
    1bc8:	c8 2e       	mov	r12, r24
    1bca:	c6 18       	sub	r12, r6
    1bcc:	3f c0       	rjmp	.+126    	; 0x1c4c <vfprintf+0x57a>
    1bce:	09 2d       	mov	r16, r9
    1bd0:	85 37       	cpi	r24, 0x75	; 117
    1bd2:	21 f4       	brne	.+8      	; 0x1bdc <vfprintf+0x50a>
    1bd4:	0f 7e       	andi	r16, 0xEF	; 239
    1bd6:	2a e0       	ldi	r18, 0x0A	; 10
    1bd8:	30 e0       	ldi	r19, 0x00	; 0
    1bda:	1d c0       	rjmp	.+58     	; 0x1c16 <vfprintf+0x544>
    1bdc:	09 7f       	andi	r16, 0xF9	; 249
    1bde:	8f 36       	cpi	r24, 0x6F	; 111
    1be0:	91 f0       	breq	.+36     	; 0x1c06 <vfprintf+0x534>
    1be2:	18 f4       	brcc	.+6      	; 0x1bea <vfprintf+0x518>
    1be4:	88 35       	cpi	r24, 0x58	; 88
    1be6:	59 f0       	breq	.+22     	; 0x1bfe <vfprintf+0x52c>
    1be8:	c3 c0       	rjmp	.+390    	; 0x1d70 <vfprintf+0x69e>
    1bea:	80 37       	cpi	r24, 0x70	; 112
    1bec:	19 f0       	breq	.+6      	; 0x1bf4 <vfprintf+0x522>
    1bee:	88 37       	cpi	r24, 0x78	; 120
    1bf0:	11 f0       	breq	.+4      	; 0x1bf6 <vfprintf+0x524>
    1bf2:	be c0       	rjmp	.+380    	; 0x1d70 <vfprintf+0x69e>
    1bf4:	00 61       	ori	r16, 0x10	; 16
    1bf6:	04 ff       	sbrs	r16, 4
    1bf8:	09 c0       	rjmp	.+18     	; 0x1c0c <vfprintf+0x53a>
    1bfa:	04 60       	ori	r16, 0x04	; 4
    1bfc:	07 c0       	rjmp	.+14     	; 0x1c0c <vfprintf+0x53a>
    1bfe:	94 fe       	sbrs	r9, 4
    1c00:	08 c0       	rjmp	.+16     	; 0x1c12 <vfprintf+0x540>
    1c02:	06 60       	ori	r16, 0x06	; 6
    1c04:	06 c0       	rjmp	.+12     	; 0x1c12 <vfprintf+0x540>
    1c06:	28 e0       	ldi	r18, 0x08	; 8
    1c08:	30 e0       	ldi	r19, 0x00	; 0
    1c0a:	05 c0       	rjmp	.+10     	; 0x1c16 <vfprintf+0x544>
    1c0c:	20 e1       	ldi	r18, 0x10	; 16
    1c0e:	30 e0       	ldi	r19, 0x00	; 0
    1c10:	02 c0       	rjmp	.+4      	; 0x1c16 <vfprintf+0x544>
    1c12:	20 e1       	ldi	r18, 0x10	; 16
    1c14:	32 e0       	ldi	r19, 0x02	; 2
    1c16:	56 01       	movw	r10, r12
    1c18:	07 ff       	sbrs	r16, 7
    1c1a:	09 c0       	rjmp	.+18     	; 0x1c2e <vfprintf+0x55c>
    1c1c:	84 e0       	ldi	r24, 0x04	; 4
    1c1e:	a8 0e       	add	r10, r24
    1c20:	b1 1c       	adc	r11, r1
    1c22:	f6 01       	movw	r30, r12
    1c24:	60 81       	ld	r22, Z
    1c26:	71 81       	ldd	r23, Z+1	; 0x01
    1c28:	82 81       	ldd	r24, Z+2	; 0x02
    1c2a:	93 81       	ldd	r25, Z+3	; 0x03
    1c2c:	08 c0       	rjmp	.+16     	; 0x1c3e <vfprintf+0x56c>
    1c2e:	f2 e0       	ldi	r31, 0x02	; 2
    1c30:	af 0e       	add	r10, r31
    1c32:	b1 1c       	adc	r11, r1
    1c34:	f6 01       	movw	r30, r12
    1c36:	60 81       	ld	r22, Z
    1c38:	71 81       	ldd	r23, Z+1	; 0x01
    1c3a:	80 e0       	ldi	r24, 0x00	; 0
    1c3c:	90 e0       	ldi	r25, 0x00	; 0
    1c3e:	a3 01       	movw	r20, r6
    1c40:	0e 94 6c 12 	call	0x24d8	; 0x24d8 <__ultoa_invert>
    1c44:	c8 2e       	mov	r12, r24
    1c46:	c6 18       	sub	r12, r6
    1c48:	0f 77       	andi	r16, 0x7F	; 127
    1c4a:	90 2e       	mov	r9, r16
    1c4c:	96 fe       	sbrs	r9, 6
    1c4e:	0b c0       	rjmp	.+22     	; 0x1c66 <vfprintf+0x594>
    1c50:	09 2d       	mov	r16, r9
    1c52:	0e 7f       	andi	r16, 0xFE	; 254
    1c54:	c1 16       	cp	r12, r17
    1c56:	50 f4       	brcc	.+20     	; 0x1c6c <vfprintf+0x59a>
    1c58:	94 fe       	sbrs	r9, 4
    1c5a:	0a c0       	rjmp	.+20     	; 0x1c70 <vfprintf+0x59e>
    1c5c:	92 fc       	sbrc	r9, 2
    1c5e:	08 c0       	rjmp	.+16     	; 0x1c70 <vfprintf+0x59e>
    1c60:	09 2d       	mov	r16, r9
    1c62:	0e 7e       	andi	r16, 0xEE	; 238
    1c64:	05 c0       	rjmp	.+10     	; 0x1c70 <vfprintf+0x59e>
    1c66:	dc 2c       	mov	r13, r12
    1c68:	09 2d       	mov	r16, r9
    1c6a:	03 c0       	rjmp	.+6      	; 0x1c72 <vfprintf+0x5a0>
    1c6c:	dc 2c       	mov	r13, r12
    1c6e:	01 c0       	rjmp	.+2      	; 0x1c72 <vfprintf+0x5a0>
    1c70:	d1 2e       	mov	r13, r17
    1c72:	04 ff       	sbrs	r16, 4
    1c74:	0d c0       	rjmp	.+26     	; 0x1c90 <vfprintf+0x5be>
    1c76:	fe 01       	movw	r30, r28
    1c78:	ec 0d       	add	r30, r12
    1c7a:	f1 1d       	adc	r31, r1
    1c7c:	80 81       	ld	r24, Z
    1c7e:	80 33       	cpi	r24, 0x30	; 48
    1c80:	11 f4       	brne	.+4      	; 0x1c86 <vfprintf+0x5b4>
    1c82:	09 7e       	andi	r16, 0xE9	; 233
    1c84:	09 c0       	rjmp	.+18     	; 0x1c98 <vfprintf+0x5c6>
    1c86:	02 ff       	sbrs	r16, 2
    1c88:	06 c0       	rjmp	.+12     	; 0x1c96 <vfprintf+0x5c4>
    1c8a:	d3 94       	inc	r13
    1c8c:	d3 94       	inc	r13
    1c8e:	04 c0       	rjmp	.+8      	; 0x1c98 <vfprintf+0x5c6>
    1c90:	80 2f       	mov	r24, r16
    1c92:	86 78       	andi	r24, 0x86	; 134
    1c94:	09 f0       	breq	.+2      	; 0x1c98 <vfprintf+0x5c6>
    1c96:	d3 94       	inc	r13
    1c98:	03 fd       	sbrc	r16, 3
    1c9a:	11 c0       	rjmp	.+34     	; 0x1cbe <vfprintf+0x5ec>
    1c9c:	00 ff       	sbrs	r16, 0
    1c9e:	06 c0       	rjmp	.+12     	; 0x1cac <vfprintf+0x5da>
    1ca0:	1c 2d       	mov	r17, r12
    1ca2:	d5 14       	cp	r13, r5
    1ca4:	80 f4       	brcc	.+32     	; 0x1cc6 <vfprintf+0x5f4>
    1ca6:	15 0d       	add	r17, r5
    1ca8:	1d 19       	sub	r17, r13
    1caa:	0d c0       	rjmp	.+26     	; 0x1cc6 <vfprintf+0x5f4>
    1cac:	d5 14       	cp	r13, r5
    1cae:	58 f4       	brcc	.+22     	; 0x1cc6 <vfprintf+0x5f4>
    1cb0:	b7 01       	movw	r22, r14
    1cb2:	80 e2       	ldi	r24, 0x20	; 32
    1cb4:	90 e0       	ldi	r25, 0x00	; 0
    1cb6:	0e 94 c8 11 	call	0x2390	; 0x2390 <fputc>
    1cba:	d3 94       	inc	r13
    1cbc:	f7 cf       	rjmp	.-18     	; 0x1cac <vfprintf+0x5da>
    1cbe:	d5 14       	cp	r13, r5
    1cc0:	10 f4       	brcc	.+4      	; 0x1cc6 <vfprintf+0x5f4>
    1cc2:	5d 18       	sub	r5, r13
    1cc4:	01 c0       	rjmp	.+2      	; 0x1cc8 <vfprintf+0x5f6>
    1cc6:	51 2c       	mov	r5, r1
    1cc8:	04 ff       	sbrs	r16, 4
    1cca:	10 c0       	rjmp	.+32     	; 0x1cec <vfprintf+0x61a>
    1ccc:	b7 01       	movw	r22, r14
    1cce:	80 e3       	ldi	r24, 0x30	; 48
    1cd0:	90 e0       	ldi	r25, 0x00	; 0
    1cd2:	0e 94 c8 11 	call	0x2390	; 0x2390 <fputc>
    1cd6:	02 ff       	sbrs	r16, 2
    1cd8:	17 c0       	rjmp	.+46     	; 0x1d08 <vfprintf+0x636>
    1cda:	01 fd       	sbrc	r16, 1
    1cdc:	03 c0       	rjmp	.+6      	; 0x1ce4 <vfprintf+0x612>
    1cde:	88 e7       	ldi	r24, 0x78	; 120
    1ce0:	90 e0       	ldi	r25, 0x00	; 0
    1ce2:	02 c0       	rjmp	.+4      	; 0x1ce8 <vfprintf+0x616>
    1ce4:	88 e5       	ldi	r24, 0x58	; 88
    1ce6:	90 e0       	ldi	r25, 0x00	; 0
    1ce8:	b7 01       	movw	r22, r14
    1cea:	0c c0       	rjmp	.+24     	; 0x1d04 <vfprintf+0x632>
    1cec:	80 2f       	mov	r24, r16
    1cee:	86 78       	andi	r24, 0x86	; 134
    1cf0:	59 f0       	breq	.+22     	; 0x1d08 <vfprintf+0x636>
    1cf2:	01 ff       	sbrs	r16, 1
    1cf4:	02 c0       	rjmp	.+4      	; 0x1cfa <vfprintf+0x628>
    1cf6:	8b e2       	ldi	r24, 0x2B	; 43
    1cf8:	01 c0       	rjmp	.+2      	; 0x1cfc <vfprintf+0x62a>
    1cfa:	80 e2       	ldi	r24, 0x20	; 32
    1cfc:	07 fd       	sbrc	r16, 7
    1cfe:	8d e2       	ldi	r24, 0x2D	; 45
    1d00:	b7 01       	movw	r22, r14
    1d02:	90 e0       	ldi	r25, 0x00	; 0
    1d04:	0e 94 c8 11 	call	0x2390	; 0x2390 <fputc>
    1d08:	c1 16       	cp	r12, r17
    1d0a:	38 f4       	brcc	.+14     	; 0x1d1a <vfprintf+0x648>
    1d0c:	b7 01       	movw	r22, r14
    1d0e:	80 e3       	ldi	r24, 0x30	; 48
    1d10:	90 e0       	ldi	r25, 0x00	; 0
    1d12:	0e 94 c8 11 	call	0x2390	; 0x2390 <fputc>
    1d16:	11 50       	subi	r17, 0x01	; 1
    1d18:	f7 cf       	rjmp	.-18     	; 0x1d08 <vfprintf+0x636>
    1d1a:	ca 94       	dec	r12
    1d1c:	f3 01       	movw	r30, r6
    1d1e:	ec 0d       	add	r30, r12
    1d20:	f1 1d       	adc	r31, r1
    1d22:	80 81       	ld	r24, Z
    1d24:	b7 01       	movw	r22, r14
    1d26:	90 e0       	ldi	r25, 0x00	; 0
    1d28:	0e 94 c8 11 	call	0x2390	; 0x2390 <fputc>
    1d2c:	c1 10       	cpse	r12, r1
    1d2e:	f5 cf       	rjmp	.-22     	; 0x1d1a <vfprintf+0x648>
    1d30:	15 c0       	rjmp	.+42     	; 0x1d5c <vfprintf+0x68a>
    1d32:	f4 e0       	ldi	r31, 0x04	; 4
    1d34:	f5 15       	cp	r31, r5
    1d36:	60 f5       	brcc	.+88     	; 0x1d90 <vfprintf+0x6be>
    1d38:	84 e0       	ldi	r24, 0x04	; 4
    1d3a:	58 1a       	sub	r5, r24
    1d3c:	93 fe       	sbrs	r9, 3
    1d3e:	1f c0       	rjmp	.+62     	; 0x1d7e <vfprintf+0x6ac>
    1d40:	01 11       	cpse	r16, r1
    1d42:	27 c0       	rjmp	.+78     	; 0x1d92 <vfprintf+0x6c0>
    1d44:	2c 85       	ldd	r18, Y+12	; 0x0c
    1d46:	23 ff       	sbrs	r18, 3
    1d48:	2a c0       	rjmp	.+84     	; 0x1d9e <vfprintf+0x6cc>
    1d4a:	0c e8       	ldi	r16, 0x8C	; 140
    1d4c:	10 e0       	ldi	r17, 0x00	; 0
    1d4e:	39 2d       	mov	r19, r9
    1d50:	30 71       	andi	r19, 0x10	; 16
    1d52:	93 2e       	mov	r9, r19
    1d54:	f8 01       	movw	r30, r16
    1d56:	84 91       	lpm	r24, Z
    1d58:	81 11       	cpse	r24, r1
    1d5a:	24 c0       	rjmp	.+72     	; 0x1da4 <vfprintf+0x6d2>
    1d5c:	55 20       	and	r5, r5
    1d5e:	09 f4       	brne	.+2      	; 0x1d62 <vfprintf+0x690>
    1d60:	e4 cc       	rjmp	.-1592   	; 0x172a <vfprintf+0x58>
    1d62:	b7 01       	movw	r22, r14
    1d64:	80 e2       	ldi	r24, 0x20	; 32
    1d66:	90 e0       	ldi	r25, 0x00	; 0
    1d68:	0e 94 c8 11 	call	0x2390	; 0x2390 <fputc>
    1d6c:	5a 94       	dec	r5
    1d6e:	f6 cf       	rjmp	.-20     	; 0x1d5c <vfprintf+0x68a>
    1d70:	f7 01       	movw	r30, r14
    1d72:	86 81       	ldd	r24, Z+6	; 0x06
    1d74:	97 81       	ldd	r25, Z+7	; 0x07
    1d76:	26 c0       	rjmp	.+76     	; 0x1dc4 <vfprintf+0x6f2>
    1d78:	8f ef       	ldi	r24, 0xFF	; 255
    1d7a:	9f ef       	ldi	r25, 0xFF	; 255
    1d7c:	23 c0       	rjmp	.+70     	; 0x1dc4 <vfprintf+0x6f2>
    1d7e:	b7 01       	movw	r22, r14
    1d80:	80 e2       	ldi	r24, 0x20	; 32
    1d82:	90 e0       	ldi	r25, 0x00	; 0
    1d84:	0e 94 c8 11 	call	0x2390	; 0x2390 <fputc>
    1d88:	5a 94       	dec	r5
    1d8a:	51 10       	cpse	r5, r1
    1d8c:	f8 cf       	rjmp	.-16     	; 0x1d7e <vfprintf+0x6ac>
    1d8e:	d8 cf       	rjmp	.-80     	; 0x1d40 <vfprintf+0x66e>
    1d90:	51 2c       	mov	r5, r1
    1d92:	b7 01       	movw	r22, r14
    1d94:	80 2f       	mov	r24, r16
    1d96:	90 e0       	ldi	r25, 0x00	; 0
    1d98:	0e 94 c8 11 	call	0x2390	; 0x2390 <fputc>
    1d9c:	d3 cf       	rjmp	.-90     	; 0x1d44 <vfprintf+0x672>
    1d9e:	00 e9       	ldi	r16, 0x90	; 144
    1da0:	10 e0       	ldi	r17, 0x00	; 0
    1da2:	d5 cf       	rjmp	.-86     	; 0x1d4e <vfprintf+0x67c>
    1da4:	91 10       	cpse	r9, r1
    1da6:	80 52       	subi	r24, 0x20	; 32
    1da8:	b7 01       	movw	r22, r14
    1daa:	90 e0       	ldi	r25, 0x00	; 0
    1dac:	0e 94 c8 11 	call	0x2390	; 0x2390 <fputc>
    1db0:	0f 5f       	subi	r16, 0xFF	; 255
    1db2:	1f 4f       	sbci	r17, 0xFF	; 255
    1db4:	cf cf       	rjmp	.-98     	; 0x1d54 <vfprintf+0x682>
    1db6:	23 e0       	ldi	r18, 0x03	; 3
    1db8:	25 15       	cp	r18, r5
    1dba:	10 f4       	brcc	.+4      	; 0x1dc0 <vfprintf+0x6ee>
    1dbc:	83 e0       	ldi	r24, 0x03	; 3
    1dbe:	bd cf       	rjmp	.-134    	; 0x1d3a <vfprintf+0x668>
    1dc0:	51 2c       	mov	r5, r1
    1dc2:	c0 cf       	rjmp	.-128    	; 0x1d44 <vfprintf+0x672>
    1dc4:	60 96       	adiw	r28, 0x10	; 16
    1dc6:	e2 e1       	ldi	r30, 0x12	; 18
    1dc8:	0c 94 61 0f 	jmp	0x1ec2	; 0x1ec2 <__epilogue_restores__>

00001dcc <__umoddi3>:
    1dcc:	68 94       	set
    1dce:	01 c0       	rjmp	.+2      	; 0x1dd2 <__udivdi3_umoddi3>

00001dd0 <__udivdi3>:
    1dd0:	e8 94       	clt

00001dd2 <__udivdi3_umoddi3>:
    1dd2:	8f 92       	push	r8
    1dd4:	9f 92       	push	r9
    1dd6:	cf 93       	push	r28
    1dd8:	df 93       	push	r29
    1dda:	0e 94 f4 0e 	call	0x1de8	; 0x1de8 <__udivmod64>
    1dde:	df 91       	pop	r29
    1de0:	cf 91       	pop	r28
    1de2:	9f 90       	pop	r9
    1de4:	8f 90       	pop	r8
    1de6:	08 95       	ret

00001de8 <__udivmod64>:
    1de8:	88 24       	eor	r8, r8
    1dea:	99 24       	eor	r9, r9
    1dec:	f4 01       	movw	r30, r8
    1dee:	e4 01       	movw	r28, r8
    1df0:	b0 e4       	ldi	r27, 0x40	; 64
    1df2:	9f 93       	push	r25
    1df4:	aa 27       	eor	r26, r26
    1df6:	9a 15       	cp	r25, r10
    1df8:	8b 04       	cpc	r8, r11
    1dfa:	9c 04       	cpc	r9, r12
    1dfc:	ed 05       	cpc	r30, r13
    1dfe:	fe 05       	cpc	r31, r14
    1e00:	cf 05       	cpc	r28, r15
    1e02:	d0 07       	cpc	r29, r16
    1e04:	a1 07       	cpc	r26, r17
    1e06:	98 f4       	brcc	.+38     	; 0x1e2e <__udivmod64+0x46>
    1e08:	ad 2f       	mov	r26, r29
    1e0a:	dc 2f       	mov	r29, r28
    1e0c:	cf 2f       	mov	r28, r31
    1e0e:	fe 2f       	mov	r31, r30
    1e10:	e9 2d       	mov	r30, r9
    1e12:	98 2c       	mov	r9, r8
    1e14:	89 2e       	mov	r8, r25
    1e16:	98 2f       	mov	r25, r24
    1e18:	87 2f       	mov	r24, r23
    1e1a:	76 2f       	mov	r23, r22
    1e1c:	65 2f       	mov	r22, r21
    1e1e:	54 2f       	mov	r21, r20
    1e20:	43 2f       	mov	r20, r19
    1e22:	32 2f       	mov	r19, r18
    1e24:	22 27       	eor	r18, r18
    1e26:	b8 50       	subi	r27, 0x08	; 8
    1e28:	31 f7       	brne	.-52     	; 0x1df6 <__udivmod64+0xe>
    1e2a:	bf 91       	pop	r27
    1e2c:	27 c0       	rjmp	.+78     	; 0x1e7c <__udivmod64+0x94>
    1e2e:	1b 2e       	mov	r1, r27
    1e30:	bf 91       	pop	r27
    1e32:	bb 27       	eor	r27, r27
    1e34:	22 0f       	add	r18, r18
    1e36:	33 1f       	adc	r19, r19
    1e38:	44 1f       	adc	r20, r20
    1e3a:	55 1f       	adc	r21, r21
    1e3c:	66 1f       	adc	r22, r22
    1e3e:	77 1f       	adc	r23, r23
    1e40:	88 1f       	adc	r24, r24
    1e42:	99 1f       	adc	r25, r25
    1e44:	88 1c       	adc	r8, r8
    1e46:	99 1c       	adc	r9, r9
    1e48:	ee 1f       	adc	r30, r30
    1e4a:	ff 1f       	adc	r31, r31
    1e4c:	cc 1f       	adc	r28, r28
    1e4e:	dd 1f       	adc	r29, r29
    1e50:	aa 1f       	adc	r26, r26
    1e52:	bb 1f       	adc	r27, r27
    1e54:	8a 14       	cp	r8, r10
    1e56:	9b 04       	cpc	r9, r11
    1e58:	ec 05       	cpc	r30, r12
    1e5a:	fd 05       	cpc	r31, r13
    1e5c:	ce 05       	cpc	r28, r14
    1e5e:	df 05       	cpc	r29, r15
    1e60:	a0 07       	cpc	r26, r16
    1e62:	b1 07       	cpc	r27, r17
    1e64:	48 f0       	brcs	.+18     	; 0x1e78 <__udivmod64+0x90>
    1e66:	8a 18       	sub	r8, r10
    1e68:	9b 08       	sbc	r9, r11
    1e6a:	ec 09       	sbc	r30, r12
    1e6c:	fd 09       	sbc	r31, r13
    1e6e:	ce 09       	sbc	r28, r14
    1e70:	df 09       	sbc	r29, r15
    1e72:	a0 0b       	sbc	r26, r16
    1e74:	b1 0b       	sbc	r27, r17
    1e76:	21 60       	ori	r18, 0x01	; 1
    1e78:	1a 94       	dec	r1
    1e7a:	e1 f6       	brne	.-72     	; 0x1e34 <__udivmod64+0x4c>
    1e7c:	2e f4       	brtc	.+10     	; 0x1e88 <__udivmod64+0xa0>
    1e7e:	94 01       	movw	r18, r8
    1e80:	af 01       	movw	r20, r30
    1e82:	be 01       	movw	r22, r28
    1e84:	cd 01       	movw	r24, r26
    1e86:	00 0c       	add	r0, r0
    1e88:	08 95       	ret

00001e8a <__prologue_saves__>:
    1e8a:	2f 92       	push	r2
    1e8c:	3f 92       	push	r3
    1e8e:	4f 92       	push	r4
    1e90:	5f 92       	push	r5
    1e92:	6f 92       	push	r6
    1e94:	7f 92       	push	r7
    1e96:	8f 92       	push	r8
    1e98:	9f 92       	push	r9
    1e9a:	af 92       	push	r10
    1e9c:	bf 92       	push	r11
    1e9e:	cf 92       	push	r12
    1ea0:	df 92       	push	r13
    1ea2:	ef 92       	push	r14
    1ea4:	ff 92       	push	r15
    1ea6:	0f 93       	push	r16
    1ea8:	1f 93       	push	r17
    1eaa:	cf 93       	push	r28
    1eac:	df 93       	push	r29
    1eae:	cd b7       	in	r28, 0x3d	; 61
    1eb0:	de b7       	in	r29, 0x3e	; 62
    1eb2:	ca 1b       	sub	r28, r26
    1eb4:	db 0b       	sbc	r29, r27
    1eb6:	0f b6       	in	r0, 0x3f	; 63
    1eb8:	f8 94       	cli
    1eba:	de bf       	out	0x3e, r29	; 62
    1ebc:	0f be       	out	0x3f, r0	; 63
    1ebe:	cd bf       	out	0x3d, r28	; 61
    1ec0:	09 94       	ijmp

00001ec2 <__epilogue_restores__>:
    1ec2:	2a 88       	ldd	r2, Y+18	; 0x12
    1ec4:	39 88       	ldd	r3, Y+17	; 0x11
    1ec6:	48 88       	ldd	r4, Y+16	; 0x10
    1ec8:	5f 84       	ldd	r5, Y+15	; 0x0f
    1eca:	6e 84       	ldd	r6, Y+14	; 0x0e
    1ecc:	7d 84       	ldd	r7, Y+13	; 0x0d
    1ece:	8c 84       	ldd	r8, Y+12	; 0x0c
    1ed0:	9b 84       	ldd	r9, Y+11	; 0x0b
    1ed2:	aa 84       	ldd	r10, Y+10	; 0x0a
    1ed4:	b9 84       	ldd	r11, Y+9	; 0x09
    1ed6:	c8 84       	ldd	r12, Y+8	; 0x08
    1ed8:	df 80       	ldd	r13, Y+7	; 0x07
    1eda:	ee 80       	ldd	r14, Y+6	; 0x06
    1edc:	fd 80       	ldd	r15, Y+5	; 0x05
    1ede:	0c 81       	ldd	r16, Y+4	; 0x04
    1ee0:	1b 81       	ldd	r17, Y+3	; 0x03
    1ee2:	aa 81       	ldd	r26, Y+2	; 0x02
    1ee4:	b9 81       	ldd	r27, Y+1	; 0x01
    1ee6:	ce 0f       	add	r28, r30
    1ee8:	d1 1d       	adc	r29, r1
    1eea:	0f b6       	in	r0, 0x3f	; 63
    1eec:	f8 94       	cli
    1eee:	de bf       	out	0x3e, r29	; 62
    1ef0:	0f be       	out	0x3f, r0	; 63
    1ef2:	cd bf       	out	0x3d, r28	; 61
    1ef4:	ed 01       	movw	r28, r26
    1ef6:	08 95       	ret

00001ef8 <__adddi3>:
    1ef8:	2a 0d       	add	r18, r10
    1efa:	3b 1d       	adc	r19, r11
    1efc:	4c 1d       	adc	r20, r12
    1efe:	5d 1d       	adc	r21, r13
    1f00:	6e 1d       	adc	r22, r14
    1f02:	7f 1d       	adc	r23, r15
    1f04:	80 1f       	adc	r24, r16
    1f06:	91 1f       	adc	r25, r17
    1f08:	08 95       	ret

00001f0a <malloc>:
    1f0a:	0f 93       	push	r16
    1f0c:	1f 93       	push	r17
    1f0e:	cf 93       	push	r28
    1f10:	df 93       	push	r29
    1f12:	82 30       	cpi	r24, 0x02	; 2
    1f14:	91 05       	cpc	r25, r1
    1f16:	10 f4       	brcc	.+4      	; 0x1f1c <malloc+0x12>
    1f18:	82 e0       	ldi	r24, 0x02	; 2
    1f1a:	90 e0       	ldi	r25, 0x00	; 0
    1f1c:	e0 91 ee 03 	lds	r30, 0x03EE	; 0x8003ee <__flp>
    1f20:	f0 91 ef 03 	lds	r31, 0x03EF	; 0x8003ef <__flp+0x1>
    1f24:	20 e0       	ldi	r18, 0x00	; 0
    1f26:	30 e0       	ldi	r19, 0x00	; 0
    1f28:	a0 e0       	ldi	r26, 0x00	; 0
    1f2a:	b0 e0       	ldi	r27, 0x00	; 0
    1f2c:	30 97       	sbiw	r30, 0x00	; 0
    1f2e:	19 f1       	breq	.+70     	; 0x1f76 <malloc+0x6c>
    1f30:	40 81       	ld	r20, Z
    1f32:	51 81       	ldd	r21, Z+1	; 0x01
    1f34:	02 81       	ldd	r16, Z+2	; 0x02
    1f36:	13 81       	ldd	r17, Z+3	; 0x03
    1f38:	48 17       	cp	r20, r24
    1f3a:	59 07       	cpc	r21, r25
    1f3c:	c8 f0       	brcs	.+50     	; 0x1f70 <malloc+0x66>
    1f3e:	84 17       	cp	r24, r20
    1f40:	95 07       	cpc	r25, r21
    1f42:	69 f4       	brne	.+26     	; 0x1f5e <malloc+0x54>
    1f44:	10 97       	sbiw	r26, 0x00	; 0
    1f46:	31 f0       	breq	.+12     	; 0x1f54 <malloc+0x4a>
    1f48:	12 96       	adiw	r26, 0x02	; 2
    1f4a:	0c 93       	st	X, r16
    1f4c:	12 97       	sbiw	r26, 0x02	; 2
    1f4e:	13 96       	adiw	r26, 0x03	; 3
    1f50:	1c 93       	st	X, r17
    1f52:	27 c0       	rjmp	.+78     	; 0x1fa2 <malloc+0x98>
    1f54:	00 93 ee 03 	sts	0x03EE, r16	; 0x8003ee <__flp>
    1f58:	10 93 ef 03 	sts	0x03EF, r17	; 0x8003ef <__flp+0x1>
    1f5c:	22 c0       	rjmp	.+68     	; 0x1fa2 <malloc+0x98>
    1f5e:	21 15       	cp	r18, r1
    1f60:	31 05       	cpc	r19, r1
    1f62:	19 f0       	breq	.+6      	; 0x1f6a <malloc+0x60>
    1f64:	42 17       	cp	r20, r18
    1f66:	53 07       	cpc	r21, r19
    1f68:	18 f4       	brcc	.+6      	; 0x1f70 <malloc+0x66>
    1f6a:	9a 01       	movw	r18, r20
    1f6c:	bd 01       	movw	r22, r26
    1f6e:	ef 01       	movw	r28, r30
    1f70:	df 01       	movw	r26, r30
    1f72:	f8 01       	movw	r30, r16
    1f74:	db cf       	rjmp	.-74     	; 0x1f2c <malloc+0x22>
    1f76:	21 15       	cp	r18, r1
    1f78:	31 05       	cpc	r19, r1
    1f7a:	f9 f0       	breq	.+62     	; 0x1fba <malloc+0xb0>
    1f7c:	28 1b       	sub	r18, r24
    1f7e:	39 0b       	sbc	r19, r25
    1f80:	24 30       	cpi	r18, 0x04	; 4
    1f82:	31 05       	cpc	r19, r1
    1f84:	80 f4       	brcc	.+32     	; 0x1fa6 <malloc+0x9c>
    1f86:	8a 81       	ldd	r24, Y+2	; 0x02
    1f88:	9b 81       	ldd	r25, Y+3	; 0x03
    1f8a:	61 15       	cp	r22, r1
    1f8c:	71 05       	cpc	r23, r1
    1f8e:	21 f0       	breq	.+8      	; 0x1f98 <malloc+0x8e>
    1f90:	fb 01       	movw	r30, r22
    1f92:	93 83       	std	Z+3, r25	; 0x03
    1f94:	82 83       	std	Z+2, r24	; 0x02
    1f96:	04 c0       	rjmp	.+8      	; 0x1fa0 <malloc+0x96>
    1f98:	90 93 ef 03 	sts	0x03EF, r25	; 0x8003ef <__flp+0x1>
    1f9c:	80 93 ee 03 	sts	0x03EE, r24	; 0x8003ee <__flp>
    1fa0:	fe 01       	movw	r30, r28
    1fa2:	32 96       	adiw	r30, 0x02	; 2
    1fa4:	44 c0       	rjmp	.+136    	; 0x202e <malloc+0x124>
    1fa6:	fe 01       	movw	r30, r28
    1fa8:	e2 0f       	add	r30, r18
    1faa:	f3 1f       	adc	r31, r19
    1fac:	81 93       	st	Z+, r24
    1fae:	91 93       	st	Z+, r25
    1fb0:	22 50       	subi	r18, 0x02	; 2
    1fb2:	31 09       	sbc	r19, r1
    1fb4:	39 83       	std	Y+1, r19	; 0x01
    1fb6:	28 83       	st	Y, r18
    1fb8:	3a c0       	rjmp	.+116    	; 0x202e <malloc+0x124>
    1fba:	20 91 ec 03 	lds	r18, 0x03EC	; 0x8003ec <__brkval>
    1fbe:	30 91 ed 03 	lds	r19, 0x03ED	; 0x8003ed <__brkval+0x1>
    1fc2:	23 2b       	or	r18, r19
    1fc4:	41 f4       	brne	.+16     	; 0x1fd6 <malloc+0xcc>
    1fc6:	20 91 02 01 	lds	r18, 0x0102	; 0x800102 <__malloc_heap_start>
    1fca:	30 91 03 01 	lds	r19, 0x0103	; 0x800103 <__malloc_heap_start+0x1>
    1fce:	30 93 ed 03 	sts	0x03ED, r19	; 0x8003ed <__brkval+0x1>
    1fd2:	20 93 ec 03 	sts	0x03EC, r18	; 0x8003ec <__brkval>
    1fd6:	20 91 00 01 	lds	r18, 0x0100	; 0x800100 <__DATA_REGION_ORIGIN__>
    1fda:	30 91 01 01 	lds	r19, 0x0101	; 0x800101 <__DATA_REGION_ORIGIN__+0x1>
    1fde:	21 15       	cp	r18, r1
    1fe0:	31 05       	cpc	r19, r1
    1fe2:	41 f4       	brne	.+16     	; 0x1ff4 <malloc+0xea>
    1fe4:	2d b7       	in	r18, 0x3d	; 61
    1fe6:	3e b7       	in	r19, 0x3e	; 62
    1fe8:	40 91 04 01 	lds	r20, 0x0104	; 0x800104 <__malloc_margin>
    1fec:	50 91 05 01 	lds	r21, 0x0105	; 0x800105 <__malloc_margin+0x1>
    1ff0:	24 1b       	sub	r18, r20
    1ff2:	35 0b       	sbc	r19, r21
    1ff4:	e0 91 ec 03 	lds	r30, 0x03EC	; 0x8003ec <__brkval>
    1ff8:	f0 91 ed 03 	lds	r31, 0x03ED	; 0x8003ed <__brkval+0x1>
    1ffc:	e2 17       	cp	r30, r18
    1ffe:	f3 07       	cpc	r31, r19
    2000:	a0 f4       	brcc	.+40     	; 0x202a <malloc+0x120>
    2002:	2e 1b       	sub	r18, r30
    2004:	3f 0b       	sbc	r19, r31
    2006:	28 17       	cp	r18, r24
    2008:	39 07       	cpc	r19, r25
    200a:	78 f0       	brcs	.+30     	; 0x202a <malloc+0x120>
    200c:	ac 01       	movw	r20, r24
    200e:	4e 5f       	subi	r20, 0xFE	; 254
    2010:	5f 4f       	sbci	r21, 0xFF	; 255
    2012:	24 17       	cp	r18, r20
    2014:	35 07       	cpc	r19, r21
    2016:	48 f0       	brcs	.+18     	; 0x202a <malloc+0x120>
    2018:	4e 0f       	add	r20, r30
    201a:	5f 1f       	adc	r21, r31
    201c:	50 93 ed 03 	sts	0x03ED, r21	; 0x8003ed <__brkval+0x1>
    2020:	40 93 ec 03 	sts	0x03EC, r20	; 0x8003ec <__brkval>
    2024:	81 93       	st	Z+, r24
    2026:	91 93       	st	Z+, r25
    2028:	02 c0       	rjmp	.+4      	; 0x202e <malloc+0x124>
    202a:	e0 e0       	ldi	r30, 0x00	; 0
    202c:	f0 e0       	ldi	r31, 0x00	; 0
    202e:	cf 01       	movw	r24, r30
    2030:	df 91       	pop	r29
    2032:	cf 91       	pop	r28
    2034:	1f 91       	pop	r17
    2036:	0f 91       	pop	r16
    2038:	08 95       	ret

0000203a <free>:
    203a:	cf 93       	push	r28
    203c:	df 93       	push	r29
    203e:	00 97       	sbiw	r24, 0x00	; 0
    2040:	09 f4       	brne	.+2      	; 0x2044 <free+0xa>
    2042:	81 c0       	rjmp	.+258    	; 0x2146 <free+0x10c>
    2044:	fc 01       	movw	r30, r24
    2046:	32 97       	sbiw	r30, 0x02	; 2
    2048:	13 82       	std	Z+3, r1	; 0x03
    204a:	12 82       	std	Z+2, r1	; 0x02
    204c:	a0 91 ee 03 	lds	r26, 0x03EE	; 0x8003ee <__flp>
    2050:	b0 91 ef 03 	lds	r27, 0x03EF	; 0x8003ef <__flp+0x1>
    2054:	10 97       	sbiw	r26, 0x00	; 0
    2056:	81 f4       	brne	.+32     	; 0x2078 <free+0x3e>
    2058:	20 81       	ld	r18, Z
    205a:	31 81       	ldd	r19, Z+1	; 0x01
    205c:	82 0f       	add	r24, r18
    205e:	93 1f       	adc	r25, r19
    2060:	20 91 ec 03 	lds	r18, 0x03EC	; 0x8003ec <__brkval>
    2064:	30 91 ed 03 	lds	r19, 0x03ED	; 0x8003ed <__brkval+0x1>
    2068:	28 17       	cp	r18, r24
    206a:	39 07       	cpc	r19, r25
    206c:	51 f5       	brne	.+84     	; 0x20c2 <free+0x88>
    206e:	f0 93 ed 03 	sts	0x03ED, r31	; 0x8003ed <__brkval+0x1>
    2072:	e0 93 ec 03 	sts	0x03EC, r30	; 0x8003ec <__brkval>
    2076:	67 c0       	rjmp	.+206    	; 0x2146 <free+0x10c>
    2078:	ed 01       	movw	r28, r26
    207a:	20 e0       	ldi	r18, 0x00	; 0
    207c:	30 e0       	ldi	r19, 0x00	; 0
    207e:	ce 17       	cp	r28, r30
    2080:	df 07       	cpc	r29, r31
    2082:	40 f4       	brcc	.+16     	; 0x2094 <free+0x5a>
    2084:	4a 81       	ldd	r20, Y+2	; 0x02
    2086:	5b 81       	ldd	r21, Y+3	; 0x03
    2088:	9e 01       	movw	r18, r28
    208a:	41 15       	cp	r20, r1
    208c:	51 05       	cpc	r21, r1
    208e:	f1 f0       	breq	.+60     	; 0x20cc <free+0x92>
    2090:	ea 01       	movw	r28, r20
    2092:	f5 cf       	rjmp	.-22     	; 0x207e <free+0x44>
    2094:	d3 83       	std	Z+3, r29	; 0x03
    2096:	c2 83       	std	Z+2, r28	; 0x02
    2098:	40 81       	ld	r20, Z
    209a:	51 81       	ldd	r21, Z+1	; 0x01
    209c:	84 0f       	add	r24, r20
    209e:	95 1f       	adc	r25, r21
    20a0:	c8 17       	cp	r28, r24
    20a2:	d9 07       	cpc	r29, r25
    20a4:	59 f4       	brne	.+22     	; 0x20bc <free+0x82>
    20a6:	88 81       	ld	r24, Y
    20a8:	99 81       	ldd	r25, Y+1	; 0x01
    20aa:	84 0f       	add	r24, r20
    20ac:	95 1f       	adc	r25, r21
    20ae:	02 96       	adiw	r24, 0x02	; 2
    20b0:	91 83       	std	Z+1, r25	; 0x01
    20b2:	80 83       	st	Z, r24
    20b4:	8a 81       	ldd	r24, Y+2	; 0x02
    20b6:	9b 81       	ldd	r25, Y+3	; 0x03
    20b8:	93 83       	std	Z+3, r25	; 0x03
    20ba:	82 83       	std	Z+2, r24	; 0x02
    20bc:	21 15       	cp	r18, r1
    20be:	31 05       	cpc	r19, r1
    20c0:	29 f4       	brne	.+10     	; 0x20cc <free+0x92>
    20c2:	f0 93 ef 03 	sts	0x03EF, r31	; 0x8003ef <__flp+0x1>
    20c6:	e0 93 ee 03 	sts	0x03EE, r30	; 0x8003ee <__flp>
    20ca:	3d c0       	rjmp	.+122    	; 0x2146 <free+0x10c>
    20cc:	e9 01       	movw	r28, r18
    20ce:	fb 83       	std	Y+3, r31	; 0x03
    20d0:	ea 83       	std	Y+2, r30	; 0x02
    20d2:	49 91       	ld	r20, Y+
    20d4:	59 91       	ld	r21, Y+
    20d6:	c4 0f       	add	r28, r20
    20d8:	d5 1f       	adc	r29, r21
    20da:	ec 17       	cp	r30, r28
    20dc:	fd 07       	cpc	r31, r29
    20de:	61 f4       	brne	.+24     	; 0x20f8 <free+0xbe>
    20e0:	80 81       	ld	r24, Z
    20e2:	91 81       	ldd	r25, Z+1	; 0x01
    20e4:	84 0f       	add	r24, r20
    20e6:	95 1f       	adc	r25, r21
    20e8:	02 96       	adiw	r24, 0x02	; 2
    20ea:	e9 01       	movw	r28, r18
    20ec:	99 83       	std	Y+1, r25	; 0x01
    20ee:	88 83       	st	Y, r24
    20f0:	82 81       	ldd	r24, Z+2	; 0x02
    20f2:	93 81       	ldd	r25, Z+3	; 0x03
    20f4:	9b 83       	std	Y+3, r25	; 0x03
    20f6:	8a 83       	std	Y+2, r24	; 0x02
    20f8:	e0 e0       	ldi	r30, 0x00	; 0
    20fa:	f0 e0       	ldi	r31, 0x00	; 0
    20fc:	12 96       	adiw	r26, 0x02	; 2
    20fe:	8d 91       	ld	r24, X+
    2100:	9c 91       	ld	r25, X
    2102:	13 97       	sbiw	r26, 0x03	; 3
    2104:	00 97       	sbiw	r24, 0x00	; 0
    2106:	19 f0       	breq	.+6      	; 0x210e <free+0xd4>
    2108:	fd 01       	movw	r30, r26
    210a:	dc 01       	movw	r26, r24
    210c:	f7 cf       	rjmp	.-18     	; 0x20fc <free+0xc2>
    210e:	8d 91       	ld	r24, X+
    2110:	9c 91       	ld	r25, X
    2112:	11 97       	sbiw	r26, 0x01	; 1
    2114:	9d 01       	movw	r18, r26
    2116:	2e 5f       	subi	r18, 0xFE	; 254
    2118:	3f 4f       	sbci	r19, 0xFF	; 255
    211a:	82 0f       	add	r24, r18
    211c:	93 1f       	adc	r25, r19
    211e:	20 91 ec 03 	lds	r18, 0x03EC	; 0x8003ec <__brkval>
    2122:	30 91 ed 03 	lds	r19, 0x03ED	; 0x8003ed <__brkval+0x1>
    2126:	28 17       	cp	r18, r24
    2128:	39 07       	cpc	r19, r25
    212a:	69 f4       	brne	.+26     	; 0x2146 <free+0x10c>
    212c:	30 97       	sbiw	r30, 0x00	; 0
    212e:	29 f4       	brne	.+10     	; 0x213a <free+0x100>
    2130:	10 92 ef 03 	sts	0x03EF, r1	; 0x8003ef <__flp+0x1>
    2134:	10 92 ee 03 	sts	0x03EE, r1	; 0x8003ee <__flp>
    2138:	02 c0       	rjmp	.+4      	; 0x213e <free+0x104>
    213a:	13 82       	std	Z+3, r1	; 0x03
    213c:	12 82       	std	Z+2, r1	; 0x02
    213e:	b0 93 ed 03 	sts	0x03ED, r27	; 0x8003ed <__brkval+0x1>
    2142:	a0 93 ec 03 	sts	0x03EC, r26	; 0x8003ec <__brkval>
    2146:	df 91       	pop	r29
    2148:	cf 91       	pop	r28
    214a:	08 95       	ret

0000214c <atoi>:
    214c:	fc 01       	movw	r30, r24
    214e:	88 27       	eor	r24, r24
    2150:	99 27       	eor	r25, r25
    2152:	e8 94       	clt
    2154:	21 91       	ld	r18, Z+
    2156:	20 32       	cpi	r18, 0x20	; 32
    2158:	e9 f3       	breq	.-6      	; 0x2154 <atoi+0x8>
    215a:	29 30       	cpi	r18, 0x09	; 9
    215c:	10 f0       	brcs	.+4      	; 0x2162 <atoi+0x16>
    215e:	2e 30       	cpi	r18, 0x0E	; 14
    2160:	c8 f3       	brcs	.-14     	; 0x2154 <atoi+0x8>
    2162:	2b 32       	cpi	r18, 0x2B	; 43
    2164:	41 f0       	breq	.+16     	; 0x2176 <atoi+0x2a>
    2166:	2d 32       	cpi	r18, 0x2D	; 45
    2168:	39 f4       	brne	.+14     	; 0x2178 <atoi+0x2c>
    216a:	68 94       	set
    216c:	04 c0       	rjmp	.+8      	; 0x2176 <atoi+0x2a>
    216e:	0e 94 c0 11 	call	0x2380	; 0x2380 <__mulhi_const_10>
    2172:	82 0f       	add	r24, r18
    2174:	91 1d       	adc	r25, r1
    2176:	21 91       	ld	r18, Z+
    2178:	20 53       	subi	r18, 0x30	; 48
    217a:	2a 30       	cpi	r18, 0x0A	; 10
    217c:	c0 f3       	brcs	.-16     	; 0x216e <atoi+0x22>
    217e:	1e f4       	brtc	.+6      	; 0x2186 <atoi+0x3a>
    2180:	90 95       	com	r25
    2182:	81 95       	neg	r24
    2184:	9f 4f       	sbci	r25, 0xFF	; 255
    2186:	08 95       	ret

00002188 <__ftoa_engine>:
    2188:	28 30       	cpi	r18, 0x08	; 8
    218a:	08 f0       	brcs	.+2      	; 0x218e <__ftoa_engine+0x6>
    218c:	27 e0       	ldi	r18, 0x07	; 7
    218e:	33 27       	eor	r19, r19
    2190:	da 01       	movw	r26, r20
    2192:	99 0f       	add	r25, r25
    2194:	31 1d       	adc	r19, r1
    2196:	87 fd       	sbrc	r24, 7
    2198:	91 60       	ori	r25, 0x01	; 1
    219a:	00 96       	adiw	r24, 0x00	; 0
    219c:	61 05       	cpc	r22, r1
    219e:	71 05       	cpc	r23, r1
    21a0:	39 f4       	brne	.+14     	; 0x21b0 <__ftoa_engine+0x28>
    21a2:	32 60       	ori	r19, 0x02	; 2
    21a4:	2e 5f       	subi	r18, 0xFE	; 254
    21a6:	3d 93       	st	X+, r19
    21a8:	30 e3       	ldi	r19, 0x30	; 48
    21aa:	2a 95       	dec	r18
    21ac:	e1 f7       	brne	.-8      	; 0x21a6 <__ftoa_engine+0x1e>
    21ae:	08 95       	ret
    21b0:	9f 3f       	cpi	r25, 0xFF	; 255
    21b2:	30 f0       	brcs	.+12     	; 0x21c0 <__ftoa_engine+0x38>
    21b4:	80 38       	cpi	r24, 0x80	; 128
    21b6:	71 05       	cpc	r23, r1
    21b8:	61 05       	cpc	r22, r1
    21ba:	09 f0       	breq	.+2      	; 0x21be <__ftoa_engine+0x36>
    21bc:	3c 5f       	subi	r19, 0xFC	; 252
    21be:	3c 5f       	subi	r19, 0xFC	; 252
    21c0:	3d 93       	st	X+, r19
    21c2:	91 30       	cpi	r25, 0x01	; 1
    21c4:	08 f0       	brcs	.+2      	; 0x21c8 <__ftoa_engine+0x40>
    21c6:	80 68       	ori	r24, 0x80	; 128
    21c8:	91 1d       	adc	r25, r1
    21ca:	df 93       	push	r29
    21cc:	cf 93       	push	r28
    21ce:	1f 93       	push	r17
    21d0:	0f 93       	push	r16
    21d2:	ff 92       	push	r15
    21d4:	ef 92       	push	r14
    21d6:	19 2f       	mov	r17, r25
    21d8:	98 7f       	andi	r25, 0xF8	; 248
    21da:	96 95       	lsr	r25
    21dc:	e9 2f       	mov	r30, r25
    21de:	96 95       	lsr	r25
    21e0:	96 95       	lsr	r25
    21e2:	e9 0f       	add	r30, r25
    21e4:	ff 27       	eor	r31, r31
    21e6:	e2 51       	subi	r30, 0x12	; 18
    21e8:	ff 4f       	sbci	r31, 0xFF	; 255
    21ea:	99 27       	eor	r25, r25
    21ec:	33 27       	eor	r19, r19
    21ee:	ee 24       	eor	r14, r14
    21f0:	ff 24       	eor	r15, r15
    21f2:	a7 01       	movw	r20, r14
    21f4:	e7 01       	movw	r28, r14
    21f6:	05 90       	lpm	r0, Z+
    21f8:	08 94       	sec
    21fa:	07 94       	ror	r0
    21fc:	28 f4       	brcc	.+10     	; 0x2208 <__ftoa_engine+0x80>
    21fe:	36 0f       	add	r19, r22
    2200:	e7 1e       	adc	r14, r23
    2202:	f8 1e       	adc	r15, r24
    2204:	49 1f       	adc	r20, r25
    2206:	51 1d       	adc	r21, r1
    2208:	66 0f       	add	r22, r22
    220a:	77 1f       	adc	r23, r23
    220c:	88 1f       	adc	r24, r24
    220e:	99 1f       	adc	r25, r25
    2210:	06 94       	lsr	r0
    2212:	a1 f7       	brne	.-24     	; 0x21fc <__ftoa_engine+0x74>
    2214:	05 90       	lpm	r0, Z+
    2216:	07 94       	ror	r0
    2218:	28 f4       	brcc	.+10     	; 0x2224 <__ftoa_engine+0x9c>
    221a:	e7 0e       	add	r14, r23
    221c:	f8 1e       	adc	r15, r24
    221e:	49 1f       	adc	r20, r25
    2220:	56 1f       	adc	r21, r22
    2222:	c1 1d       	adc	r28, r1
    2224:	77 0f       	add	r23, r23
    2226:	88 1f       	adc	r24, r24
    2228:	99 1f       	adc	r25, r25
    222a:	66 1f       	adc	r22, r22
    222c:	06 94       	lsr	r0
    222e:	a1 f7       	brne	.-24     	; 0x2218 <__ftoa_engine+0x90>
    2230:	05 90       	lpm	r0, Z+
    2232:	07 94       	ror	r0
    2234:	28 f4       	brcc	.+10     	; 0x2240 <__ftoa_engine+0xb8>
    2236:	f8 0e       	add	r15, r24
    2238:	49 1f       	adc	r20, r25
    223a:	56 1f       	adc	r21, r22
    223c:	c7 1f       	adc	r28, r23
    223e:	d1 1d       	adc	r29, r1
    2240:	88 0f       	add	r24, r24
    2242:	99 1f       	adc	r25, r25
    2244:	66 1f       	adc	r22, r22
    2246:	77 1f       	adc	r23, r23
    2248:	06 94       	lsr	r0
    224a:	a1 f7       	brne	.-24     	; 0x2234 <__ftoa_engine+0xac>
    224c:	05 90       	lpm	r0, Z+
    224e:	07 94       	ror	r0
    2250:	20 f4       	brcc	.+8      	; 0x225a <__ftoa_engine+0xd2>
    2252:	49 0f       	add	r20, r25
    2254:	56 1f       	adc	r21, r22
    2256:	c7 1f       	adc	r28, r23
    2258:	d8 1f       	adc	r29, r24
    225a:	99 0f       	add	r25, r25
    225c:	66 1f       	adc	r22, r22
    225e:	77 1f       	adc	r23, r23
    2260:	88 1f       	adc	r24, r24
    2262:	06 94       	lsr	r0
    2264:	a9 f7       	brne	.-22     	; 0x2250 <__ftoa_engine+0xc8>
    2266:	84 91       	lpm	r24, Z
    2268:	10 95       	com	r17
    226a:	17 70       	andi	r17, 0x07	; 7
    226c:	41 f0       	breq	.+16     	; 0x227e <__ftoa_engine+0xf6>
    226e:	d6 95       	lsr	r29
    2270:	c7 95       	ror	r28
    2272:	57 95       	ror	r21
    2274:	47 95       	ror	r20
    2276:	f7 94       	ror	r15
    2278:	e7 94       	ror	r14
    227a:	1a 95       	dec	r17
    227c:	c1 f7       	brne	.-16     	; 0x226e <__ftoa_engine+0xe6>
    227e:	e4 e9       	ldi	r30, 0x94	; 148
    2280:	f0 e0       	ldi	r31, 0x00	; 0
    2282:	68 94       	set
    2284:	15 90       	lpm	r1, Z+
    2286:	15 91       	lpm	r17, Z+
    2288:	35 91       	lpm	r19, Z+
    228a:	65 91       	lpm	r22, Z+
    228c:	95 91       	lpm	r25, Z+
    228e:	05 90       	lpm	r0, Z+
    2290:	7f e2       	ldi	r23, 0x2F	; 47
    2292:	73 95       	inc	r23
    2294:	e1 18       	sub	r14, r1
    2296:	f1 0a       	sbc	r15, r17
    2298:	43 0b       	sbc	r20, r19
    229a:	56 0b       	sbc	r21, r22
    229c:	c9 0b       	sbc	r28, r25
    229e:	d0 09       	sbc	r29, r0
    22a0:	c0 f7       	brcc	.-16     	; 0x2292 <__ftoa_engine+0x10a>
    22a2:	e1 0c       	add	r14, r1
    22a4:	f1 1e       	adc	r15, r17
    22a6:	43 1f       	adc	r20, r19
    22a8:	56 1f       	adc	r21, r22
    22aa:	c9 1f       	adc	r28, r25
    22ac:	d0 1d       	adc	r29, r0
    22ae:	7e f4       	brtc	.+30     	; 0x22ce <__ftoa_engine+0x146>
    22b0:	70 33       	cpi	r23, 0x30	; 48
    22b2:	11 f4       	brne	.+4      	; 0x22b8 <__ftoa_engine+0x130>
    22b4:	8a 95       	dec	r24
    22b6:	e6 cf       	rjmp	.-52     	; 0x2284 <__ftoa_engine+0xfc>
    22b8:	e8 94       	clt
    22ba:	01 50       	subi	r16, 0x01	; 1
    22bc:	30 f0       	brcs	.+12     	; 0x22ca <__ftoa_engine+0x142>
    22be:	08 0f       	add	r16, r24
    22c0:	0a f4       	brpl	.+2      	; 0x22c4 <__ftoa_engine+0x13c>
    22c2:	00 27       	eor	r16, r16
    22c4:	02 17       	cp	r16, r18
    22c6:	08 f4       	brcc	.+2      	; 0x22ca <__ftoa_engine+0x142>
    22c8:	20 2f       	mov	r18, r16
    22ca:	23 95       	inc	r18
    22cc:	02 2f       	mov	r16, r18
    22ce:	7a 33       	cpi	r23, 0x3A	; 58
    22d0:	28 f0       	brcs	.+10     	; 0x22dc <__ftoa_engine+0x154>
    22d2:	79 e3       	ldi	r23, 0x39	; 57
    22d4:	7d 93       	st	X+, r23
    22d6:	2a 95       	dec	r18
    22d8:	e9 f7       	brne	.-6      	; 0x22d4 <__ftoa_engine+0x14c>
    22da:	10 c0       	rjmp	.+32     	; 0x22fc <__ftoa_engine+0x174>
    22dc:	7d 93       	st	X+, r23
    22de:	2a 95       	dec	r18
    22e0:	89 f6       	brne	.-94     	; 0x2284 <__ftoa_engine+0xfc>
    22e2:	06 94       	lsr	r0
    22e4:	97 95       	ror	r25
    22e6:	67 95       	ror	r22
    22e8:	37 95       	ror	r19
    22ea:	17 95       	ror	r17
    22ec:	17 94       	ror	r1
    22ee:	e1 18       	sub	r14, r1
    22f0:	f1 0a       	sbc	r15, r17
    22f2:	43 0b       	sbc	r20, r19
    22f4:	56 0b       	sbc	r21, r22
    22f6:	c9 0b       	sbc	r28, r25
    22f8:	d0 09       	sbc	r29, r0
    22fa:	98 f0       	brcs	.+38     	; 0x2322 <__ftoa_engine+0x19a>
    22fc:	23 95       	inc	r18
    22fe:	7e 91       	ld	r23, -X
    2300:	73 95       	inc	r23
    2302:	7a 33       	cpi	r23, 0x3A	; 58
    2304:	08 f0       	brcs	.+2      	; 0x2308 <__ftoa_engine+0x180>
    2306:	70 e3       	ldi	r23, 0x30	; 48
    2308:	7c 93       	st	X, r23
    230a:	20 13       	cpse	r18, r16
    230c:	b8 f7       	brcc	.-18     	; 0x22fc <__ftoa_engine+0x174>
    230e:	7e 91       	ld	r23, -X
    2310:	70 61       	ori	r23, 0x10	; 16
    2312:	7d 93       	st	X+, r23
    2314:	30 f0       	brcs	.+12     	; 0x2322 <__ftoa_engine+0x19a>
    2316:	83 95       	inc	r24
    2318:	71 e3       	ldi	r23, 0x31	; 49
    231a:	7d 93       	st	X+, r23
    231c:	70 e3       	ldi	r23, 0x30	; 48
    231e:	2a 95       	dec	r18
    2320:	e1 f7       	brne	.-8      	; 0x231a <__ftoa_engine+0x192>
    2322:	11 24       	eor	r1, r1
    2324:	ef 90       	pop	r14
    2326:	ff 90       	pop	r15
    2328:	0f 91       	pop	r16
    232a:	1f 91       	pop	r17
    232c:	cf 91       	pop	r28
    232e:	df 91       	pop	r29
    2330:	99 27       	eor	r25, r25
    2332:	87 fd       	sbrc	r24, 7
    2334:	90 95       	com	r25
    2336:	08 95       	ret

00002338 <strnlen_P>:
    2338:	fc 01       	movw	r30, r24
    233a:	05 90       	lpm	r0, Z+
    233c:	61 50       	subi	r22, 0x01	; 1
    233e:	70 40       	sbci	r23, 0x00	; 0
    2340:	01 10       	cpse	r0, r1
    2342:	d8 f7       	brcc	.-10     	; 0x233a <strnlen_P+0x2>
    2344:	80 95       	com	r24
    2346:	90 95       	com	r25
    2348:	8e 0f       	add	r24, r30
    234a:	9f 1f       	adc	r25, r31
    234c:	08 95       	ret

0000234e <strncmp>:
    234e:	fb 01       	movw	r30, r22
    2350:	dc 01       	movw	r26, r24
    2352:	41 50       	subi	r20, 0x01	; 1
    2354:	50 40       	sbci	r21, 0x00	; 0
    2356:	30 f0       	brcs	.+12     	; 0x2364 <strncmp+0x16>
    2358:	8d 91       	ld	r24, X+
    235a:	01 90       	ld	r0, Z+
    235c:	80 19       	sub	r24, r0
    235e:	19 f4       	brne	.+6      	; 0x2366 <strncmp+0x18>
    2360:	00 20       	and	r0, r0
    2362:	b9 f7       	brne	.-18     	; 0x2352 <strncmp+0x4>
    2364:	88 1b       	sub	r24, r24
    2366:	99 0b       	sbc	r25, r25
    2368:	08 95       	ret

0000236a <strnlen>:
    236a:	fc 01       	movw	r30, r24
    236c:	61 50       	subi	r22, 0x01	; 1
    236e:	70 40       	sbci	r23, 0x00	; 0
    2370:	01 90       	ld	r0, Z+
    2372:	01 10       	cpse	r0, r1
    2374:	d8 f7       	brcc	.-10     	; 0x236c <strnlen+0x2>
    2376:	80 95       	com	r24
    2378:	90 95       	com	r25
    237a:	8e 0f       	add	r24, r30
    237c:	9f 1f       	adc	r25, r31
    237e:	08 95       	ret

00002380 <__mulhi_const_10>:
    2380:	7a e0       	ldi	r23, 0x0A	; 10
    2382:	97 9f       	mul	r25, r23
    2384:	90 2d       	mov	r25, r0
    2386:	87 9f       	mul	r24, r23
    2388:	80 2d       	mov	r24, r0
    238a:	91 0d       	add	r25, r1
    238c:	11 24       	eor	r1, r1
    238e:	08 95       	ret

00002390 <fputc>:
    2390:	0f 93       	push	r16
    2392:	1f 93       	push	r17
    2394:	cf 93       	push	r28
    2396:	df 93       	push	r29
    2398:	fb 01       	movw	r30, r22
    239a:	23 81       	ldd	r18, Z+3	; 0x03
    239c:	21 fd       	sbrc	r18, 1
    239e:	03 c0       	rjmp	.+6      	; 0x23a6 <fputc+0x16>
    23a0:	8f ef       	ldi	r24, 0xFF	; 255
    23a2:	9f ef       	ldi	r25, 0xFF	; 255
    23a4:	2c c0       	rjmp	.+88     	; 0x23fe <fputc+0x6e>
    23a6:	22 ff       	sbrs	r18, 2
    23a8:	16 c0       	rjmp	.+44     	; 0x23d6 <fputc+0x46>
    23aa:	46 81       	ldd	r20, Z+6	; 0x06
    23ac:	57 81       	ldd	r21, Z+7	; 0x07
    23ae:	24 81       	ldd	r18, Z+4	; 0x04
    23b0:	35 81       	ldd	r19, Z+5	; 0x05
    23b2:	42 17       	cp	r20, r18
    23b4:	53 07       	cpc	r21, r19
    23b6:	44 f4       	brge	.+16     	; 0x23c8 <fputc+0x38>
    23b8:	a0 81       	ld	r26, Z
    23ba:	b1 81       	ldd	r27, Z+1	; 0x01
    23bc:	9d 01       	movw	r18, r26
    23be:	2f 5f       	subi	r18, 0xFF	; 255
    23c0:	3f 4f       	sbci	r19, 0xFF	; 255
    23c2:	31 83       	std	Z+1, r19	; 0x01
    23c4:	20 83       	st	Z, r18
    23c6:	8c 93       	st	X, r24
    23c8:	26 81       	ldd	r18, Z+6	; 0x06
    23ca:	37 81       	ldd	r19, Z+7	; 0x07
    23cc:	2f 5f       	subi	r18, 0xFF	; 255
    23ce:	3f 4f       	sbci	r19, 0xFF	; 255
    23d0:	37 83       	std	Z+7, r19	; 0x07
    23d2:	26 83       	std	Z+6, r18	; 0x06
    23d4:	14 c0       	rjmp	.+40     	; 0x23fe <fputc+0x6e>
    23d6:	8b 01       	movw	r16, r22
    23d8:	ec 01       	movw	r28, r24
    23da:	fb 01       	movw	r30, r22
    23dc:	00 84       	ldd	r0, Z+8	; 0x08
    23de:	f1 85       	ldd	r31, Z+9	; 0x09
    23e0:	e0 2d       	mov	r30, r0
    23e2:	09 95       	icall
    23e4:	89 2b       	or	r24, r25
    23e6:	e1 f6       	brne	.-72     	; 0x23a0 <fputc+0x10>
    23e8:	d8 01       	movw	r26, r16
    23ea:	16 96       	adiw	r26, 0x06	; 6
    23ec:	8d 91       	ld	r24, X+
    23ee:	9c 91       	ld	r25, X
    23f0:	17 97       	sbiw	r26, 0x07	; 7
    23f2:	01 96       	adiw	r24, 0x01	; 1
    23f4:	17 96       	adiw	r26, 0x07	; 7
    23f6:	9c 93       	st	X, r25
    23f8:	8e 93       	st	-X, r24
    23fa:	16 97       	sbiw	r26, 0x06	; 6
    23fc:	ce 01       	movw	r24, r28
    23fe:	df 91       	pop	r29
    2400:	cf 91       	pop	r28
    2402:	1f 91       	pop	r17
    2404:	0f 91       	pop	r16
    2406:	08 95       	ret

00002408 <printf>:
    2408:	a0 e0       	ldi	r26, 0x00	; 0
    240a:	b0 e0       	ldi	r27, 0x00	; 0
    240c:	ea e0       	ldi	r30, 0x0A	; 10
    240e:	f2 e1       	ldi	r31, 0x12	; 18
    2410:	0c 94 55 0f 	jmp	0x1eaa	; 0x1eaa <__prologue_saves__+0x20>
    2414:	ae 01       	movw	r20, r28
    2416:	4b 5f       	subi	r20, 0xFB	; 251
    2418:	5f 4f       	sbci	r21, 0xFF	; 255
    241a:	fa 01       	movw	r30, r20
    241c:	61 91       	ld	r22, Z+
    241e:	71 91       	ld	r23, Z+
    2420:	af 01       	movw	r20, r30
    2422:	80 91 f2 03 	lds	r24, 0x03F2	; 0x8003f2 <__iob+0x2>
    2426:	90 91 f3 03 	lds	r25, 0x03F3	; 0x8003f3 <__iob+0x3>
    242a:	0e 94 69 0b 	call	0x16d2	; 0x16d2 <vfprintf>
    242e:	e2 e0       	ldi	r30, 0x02	; 2
    2430:	0c 94 71 0f 	jmp	0x1ee2	; 0x1ee2 <__epilogue_restores__+0x20>

00002434 <puts>:
    2434:	0f 93       	push	r16
    2436:	1f 93       	push	r17
    2438:	cf 93       	push	r28
    243a:	df 93       	push	r29
    243c:	e0 91 f2 03 	lds	r30, 0x03F2	; 0x8003f2 <__iob+0x2>
    2440:	f0 91 f3 03 	lds	r31, 0x03F3	; 0x8003f3 <__iob+0x3>
    2444:	23 81       	ldd	r18, Z+3	; 0x03
    2446:	21 ff       	sbrs	r18, 1
    2448:	1b c0       	rjmp	.+54     	; 0x2480 <puts+0x4c>
    244a:	8c 01       	movw	r16, r24
    244c:	d0 e0       	ldi	r29, 0x00	; 0
    244e:	c0 e0       	ldi	r28, 0x00	; 0
    2450:	f8 01       	movw	r30, r16
    2452:	81 91       	ld	r24, Z+
    2454:	8f 01       	movw	r16, r30
    2456:	60 91 f2 03 	lds	r22, 0x03F2	; 0x8003f2 <__iob+0x2>
    245a:	70 91 f3 03 	lds	r23, 0x03F3	; 0x8003f3 <__iob+0x3>
    245e:	db 01       	movw	r26, r22
    2460:	18 96       	adiw	r26, 0x08	; 8
    2462:	ed 91       	ld	r30, X+
    2464:	fc 91       	ld	r31, X
    2466:	19 97       	sbiw	r26, 0x09	; 9
    2468:	88 23       	and	r24, r24
    246a:	31 f0       	breq	.+12     	; 0x2478 <puts+0x44>
    246c:	09 95       	icall
    246e:	89 2b       	or	r24, r25
    2470:	79 f3       	breq	.-34     	; 0x2450 <puts+0x1c>
    2472:	df ef       	ldi	r29, 0xFF	; 255
    2474:	cf ef       	ldi	r28, 0xFF	; 255
    2476:	ec cf       	rjmp	.-40     	; 0x2450 <puts+0x1c>
    2478:	8a e0       	ldi	r24, 0x0A	; 10
    247a:	09 95       	icall
    247c:	89 2b       	or	r24, r25
    247e:	19 f0       	breq	.+6      	; 0x2486 <puts+0x52>
    2480:	8f ef       	ldi	r24, 0xFF	; 255
    2482:	9f ef       	ldi	r25, 0xFF	; 255
    2484:	02 c0       	rjmp	.+4      	; 0x248a <puts+0x56>
    2486:	8d 2f       	mov	r24, r29
    2488:	9c 2f       	mov	r25, r28
    248a:	df 91       	pop	r29
    248c:	cf 91       	pop	r28
    248e:	1f 91       	pop	r17
    2490:	0f 91       	pop	r16
    2492:	08 95       	ret

00002494 <sprintf>:
    2494:	ae e0       	ldi	r26, 0x0E	; 14
    2496:	b0 e0       	ldi	r27, 0x00	; 0
    2498:	e0 e5       	ldi	r30, 0x50	; 80
    249a:	f2 e1       	ldi	r31, 0x12	; 18
    249c:	0c 94 53 0f 	jmp	0x1ea6	; 0x1ea6 <__prologue_saves__+0x1c>
    24a0:	0d 89       	ldd	r16, Y+21	; 0x15
    24a2:	1e 89       	ldd	r17, Y+22	; 0x16
    24a4:	86 e0       	ldi	r24, 0x06	; 6
    24a6:	8c 83       	std	Y+4, r24	; 0x04
    24a8:	1a 83       	std	Y+2, r17	; 0x02
    24aa:	09 83       	std	Y+1, r16	; 0x01
    24ac:	8f ef       	ldi	r24, 0xFF	; 255
    24ae:	9f e7       	ldi	r25, 0x7F	; 127
    24b0:	9e 83       	std	Y+6, r25	; 0x06
    24b2:	8d 83       	std	Y+5, r24	; 0x05
    24b4:	ae 01       	movw	r20, r28
    24b6:	47 5e       	subi	r20, 0xE7	; 231
    24b8:	5f 4f       	sbci	r21, 0xFF	; 255
    24ba:	6f 89       	ldd	r22, Y+23	; 0x17
    24bc:	78 8d       	ldd	r23, Y+24	; 0x18
    24be:	ce 01       	movw	r24, r28
    24c0:	01 96       	adiw	r24, 0x01	; 1
    24c2:	0e 94 69 0b 	call	0x16d2	; 0x16d2 <vfprintf>
    24c6:	ef 81       	ldd	r30, Y+7	; 0x07
    24c8:	f8 85       	ldd	r31, Y+8	; 0x08
    24ca:	e0 0f       	add	r30, r16
    24cc:	f1 1f       	adc	r31, r17
    24ce:	10 82       	st	Z, r1
    24d0:	2e 96       	adiw	r28, 0x0e	; 14
    24d2:	e4 e0       	ldi	r30, 0x04	; 4
    24d4:	0c 94 6f 0f 	jmp	0x1ede	; 0x1ede <__epilogue_restores__+0x1c>

000024d8 <__ultoa_invert>:
    24d8:	fa 01       	movw	r30, r20
    24da:	aa 27       	eor	r26, r26
    24dc:	28 30       	cpi	r18, 0x08	; 8
    24de:	51 f1       	breq	.+84     	; 0x2534 <__ultoa_invert+0x5c>
    24e0:	20 31       	cpi	r18, 0x10	; 16
    24e2:	81 f1       	breq	.+96     	; 0x2544 <__ultoa_invert+0x6c>
    24e4:	e8 94       	clt
    24e6:	6f 93       	push	r22
    24e8:	6e 7f       	andi	r22, 0xFE	; 254
    24ea:	6e 5f       	subi	r22, 0xFE	; 254
    24ec:	7f 4f       	sbci	r23, 0xFF	; 255
    24ee:	8f 4f       	sbci	r24, 0xFF	; 255
    24f0:	9f 4f       	sbci	r25, 0xFF	; 255
    24f2:	af 4f       	sbci	r26, 0xFF	; 255
    24f4:	b1 e0       	ldi	r27, 0x01	; 1
    24f6:	3e d0       	rcall	.+124    	; 0x2574 <__ultoa_invert+0x9c>
    24f8:	b4 e0       	ldi	r27, 0x04	; 4
    24fa:	3c d0       	rcall	.+120    	; 0x2574 <__ultoa_invert+0x9c>
    24fc:	67 0f       	add	r22, r23
    24fe:	78 1f       	adc	r23, r24
    2500:	89 1f       	adc	r24, r25
    2502:	9a 1f       	adc	r25, r26
    2504:	a1 1d       	adc	r26, r1
    2506:	68 0f       	add	r22, r24
    2508:	79 1f       	adc	r23, r25
    250a:	8a 1f       	adc	r24, r26
    250c:	91 1d       	adc	r25, r1
    250e:	a1 1d       	adc	r26, r1
    2510:	6a 0f       	add	r22, r26
    2512:	71 1d       	adc	r23, r1
    2514:	81 1d       	adc	r24, r1
    2516:	91 1d       	adc	r25, r1
    2518:	a1 1d       	adc	r26, r1
    251a:	20 d0       	rcall	.+64     	; 0x255c <__ultoa_invert+0x84>
    251c:	09 f4       	brne	.+2      	; 0x2520 <__ultoa_invert+0x48>
    251e:	68 94       	set
    2520:	3f 91       	pop	r19
    2522:	2a e0       	ldi	r18, 0x0A	; 10
    2524:	26 9f       	mul	r18, r22
    2526:	11 24       	eor	r1, r1
    2528:	30 19       	sub	r19, r0
    252a:	30 5d       	subi	r19, 0xD0	; 208
    252c:	31 93       	st	Z+, r19
    252e:	de f6       	brtc	.-74     	; 0x24e6 <__ultoa_invert+0xe>
    2530:	cf 01       	movw	r24, r30
    2532:	08 95       	ret
    2534:	46 2f       	mov	r20, r22
    2536:	47 70       	andi	r20, 0x07	; 7
    2538:	40 5d       	subi	r20, 0xD0	; 208
    253a:	41 93       	st	Z+, r20
    253c:	b3 e0       	ldi	r27, 0x03	; 3
    253e:	0f d0       	rcall	.+30     	; 0x255e <__ultoa_invert+0x86>
    2540:	c9 f7       	brne	.-14     	; 0x2534 <__ultoa_invert+0x5c>
    2542:	f6 cf       	rjmp	.-20     	; 0x2530 <__ultoa_invert+0x58>
    2544:	46 2f       	mov	r20, r22
    2546:	4f 70       	andi	r20, 0x0F	; 15
    2548:	40 5d       	subi	r20, 0xD0	; 208
    254a:	4a 33       	cpi	r20, 0x3A	; 58
    254c:	18 f0       	brcs	.+6      	; 0x2554 <__ultoa_invert+0x7c>
    254e:	49 5d       	subi	r20, 0xD9	; 217
    2550:	31 fd       	sbrc	r19, 1
    2552:	40 52       	subi	r20, 0x20	; 32
    2554:	41 93       	st	Z+, r20
    2556:	02 d0       	rcall	.+4      	; 0x255c <__ultoa_invert+0x84>
    2558:	a9 f7       	brne	.-22     	; 0x2544 <__ultoa_invert+0x6c>
    255a:	ea cf       	rjmp	.-44     	; 0x2530 <__ultoa_invert+0x58>
    255c:	b4 e0       	ldi	r27, 0x04	; 4
    255e:	a6 95       	lsr	r26
    2560:	97 95       	ror	r25
    2562:	87 95       	ror	r24
    2564:	77 95       	ror	r23
    2566:	67 95       	ror	r22
    2568:	ba 95       	dec	r27
    256a:	c9 f7       	brne	.-14     	; 0x255e <__ultoa_invert+0x86>
    256c:	00 97       	sbiw	r24, 0x00	; 0
    256e:	61 05       	cpc	r22, r1
    2570:	71 05       	cpc	r23, r1
    2572:	08 95       	ret
    2574:	9b 01       	movw	r18, r22
    2576:	ac 01       	movw	r20, r24
    2578:	0a 2e       	mov	r0, r26
    257a:	06 94       	lsr	r0
    257c:	57 95       	ror	r21
    257e:	47 95       	ror	r20
    2580:	37 95       	ror	r19
    2582:	27 95       	ror	r18
    2584:	ba 95       	dec	r27
    2586:	c9 f7       	brne	.-14     	; 0x257a <__ultoa_invert+0xa2>
    2588:	62 0f       	add	r22, r18
    258a:	73 1f       	adc	r23, r19
    258c:	84 1f       	adc	r24, r20
    258e:	95 1f       	adc	r25, r21
    2590:	a0 1d       	adc	r26, r0
    2592:	08 95       	ret

00002594 <_exit>:
    2594:	f8 94       	cli

00002596 <__stop_program>:
    2596:	ff cf       	rjmp	.-2      	; 0x2596 <__stop_program>
